
corewar:     file format elf64-x86-64


Disassembly of section .init:

0000000000000dd0 <_init>:
 dd0:	48 83 ec 08          	sub    rsp,0x8
 dd4:	48 8b 05 f5 61 20 00 	mov    rax,QWORD PTR [rip+0x2061f5]        # 206fd0 <__gmon_start__>
 ddb:	48 85 c0             	test   rax,rax
 dde:	74 02                	je     de2 <_init+0x12>
 de0:	ff d0                	call   rax
 de2:	48 83 c4 08          	add    rsp,0x8
 de6:	c3                   	ret    

Disassembly of section .plt:

0000000000000df0 <.plt>:
 df0:	ff 35 12 62 20 00    	push   QWORD PTR [rip+0x206212]        # 207008 <_GLOBAL_OFFSET_TABLE_+0x8>
 df6:	ff 25 14 62 20 00    	jmp    QWORD PTR [rip+0x206214]        # 207010 <_GLOBAL_OFFSET_TABLE_+0x10>
 dfc:	0f 1f 40 00          	nop    DWORD PTR [rax+0x0]

0000000000000e00 <free@plt>:
 e00:	ff 25 12 62 20 00    	jmp    QWORD PTR [rip+0x206212]        # 207018 <free@GLIBC_2.2.5>
 e06:	68 00 00 00 00       	push   0x0
 e0b:	e9 e0 ff ff ff       	jmp    df0 <.plt>

0000000000000e10 <__errno_location@plt>:
 e10:	ff 25 0a 62 20 00    	jmp    QWORD PTR [rip+0x20620a]        # 207020 <__errno_location@GLIBC_2.2.5>
 e16:	68 01 00 00 00       	push   0x1
 e1b:	e9 d0 ff ff ff       	jmp    df0 <.plt>

0000000000000e20 <write@plt>:
 e20:	ff 25 02 62 20 00    	jmp    QWORD PTR [rip+0x206202]        # 207028 <write@GLIBC_2.2.5>
 e26:	68 02 00 00 00       	push   0x2
 e2b:	e9 c0 ff ff ff       	jmp    df0 <.plt>

0000000000000e30 <printf@plt>:
 e30:	ff 25 fa 61 20 00    	jmp    QWORD PTR [rip+0x2061fa]        # 207030 <printf@GLIBC_2.2.5>
 e36:	68 03 00 00 00       	push   0x3
 e3b:	e9 b0 ff ff ff       	jmp    df0 <.plt>

0000000000000e40 <lseek@plt>:
 e40:	ff 25 f2 61 20 00    	jmp    QWORD PTR [rip+0x2061f2]        # 207038 <lseek@GLIBC_2.2.5>
 e46:	68 04 00 00 00       	push   0x4
 e4b:	e9 a0 ff ff ff       	jmp    df0 <.plt>

0000000000000e50 <close@plt>:
 e50:	ff 25 ea 61 20 00    	jmp    QWORD PTR [rip+0x2061ea]        # 207040 <close@GLIBC_2.2.5>
 e56:	68 05 00 00 00       	push   0x5
 e5b:	e9 90 ff ff ff       	jmp    df0 <.plt>

0000000000000e60 <read@plt>:
 e60:	ff 25 e2 61 20 00    	jmp    QWORD PTR [rip+0x2061e2]        # 207048 <read@GLIBC_2.2.5>
 e66:	68 06 00 00 00       	push   0x6
 e6b:	e9 80 ff ff ff       	jmp    df0 <.plt>

0000000000000e70 <malloc@plt>:
 e70:	ff 25 da 61 20 00    	jmp    QWORD PTR [rip+0x2061da]        # 207050 <malloc@GLIBC_2.2.5>
 e76:	68 07 00 00 00       	push   0x7
 e7b:	e9 70 ff ff ff       	jmp    df0 <.plt>

0000000000000e80 <open@plt>:
 e80:	ff 25 d2 61 20 00    	jmp    QWORD PTR [rip+0x2061d2]        # 207058 <open@GLIBC_2.2.5>
 e86:	68 08 00 00 00       	push   0x8
 e8b:	e9 60 ff ff ff       	jmp    df0 <.plt>

0000000000000e90 <exit@plt>:
 e90:	ff 25 ca 61 20 00    	jmp    QWORD PTR [rip+0x2061ca]        # 207060 <exit@GLIBC_2.2.5>
 e96:	68 09 00 00 00       	push   0x9
 e9b:	e9 50 ff ff ff       	jmp    df0 <.plt>

0000000000000ea0 <strerror@plt>:
 ea0:	ff 25 c2 61 20 00    	jmp    QWORD PTR [rip+0x2061c2]        # 207068 <strerror@GLIBC_2.2.5>
 ea6:	68 0a 00 00 00       	push   0xa
 eab:	e9 40 ff ff ff       	jmp    df0 <.plt>

Disassembly of section .plt.got:

0000000000000eb0 <.plt.got>:
 eb0:	ff 25 32 61 20 00    	jmp    QWORD PTR [rip+0x206132]        # 206fe8 <__cxa_finalize@GLIBC_2.2.5>
 eb6:	66 90                	xchg   ax,ax

Disassembly of section .text:

0000000000000ec0 <_start>:
     ec0:	31 ed                	xor    ebp,ebp
     ec2:	49 89 d1             	mov    r9,rdx
     ec5:	5e                   	pop    rsi
     ec6:	48 89 e2             	mov    rdx,rsp
     ec9:	48 83 e4 f0          	and    rsp,0xfffffffffffffff0
     ecd:	50                   	push   rax
     ece:	54                   	push   rsp
     ecf:	4c 8d 05 4a 3c 00 00 	lea    r8,[rip+0x3c4a]        # 4b20 <__libc_csu_fini>
     ed6:	48 8d 0d d3 3b 00 00 	lea    rcx,[rip+0x3bd3]        # 4ab0 <__libc_csu_init>
     edd:	48 8d 3d 90 02 00 00 	lea    rdi,[rip+0x290]        # 1174 <main>
     ee4:	ff 15 de 60 20 00    	call   QWORD PTR [rip+0x2060de]        # 206fc8 <__libc_start_main@GLIBC_2.2.5>
     eea:	f4                   	hlt    
     eeb:	0f 1f 44 00 00       	nop    DWORD PTR [rax+rax*1+0x0]

0000000000000ef0 <deregister_tm_clones>:
     ef0:	48 8d 3d 61 65 20 00 	lea    rdi,[rip+0x206561]        # 207458 <__TMC_END__>
     ef7:	48 8d 05 61 65 20 00 	lea    rax,[rip+0x206561]        # 20745f <__TMC_END__+0x7>
     efe:	55                   	push   rbp
     eff:	48 29 f8             	sub    rax,rdi
     f02:	48 89 e5             	mov    rbp,rsp
     f05:	48 83 f8 0e          	cmp    rax,0xe
     f09:	76 15                	jbe    f20 <deregister_tm_clones+0x30>
     f0b:	48 8b 05 ae 60 20 00 	mov    rax,QWORD PTR [rip+0x2060ae]        # 206fc0 <_ITM_deregisterTMCloneTable>
     f12:	48 85 c0             	test   rax,rax
     f15:	74 09                	je     f20 <deregister_tm_clones+0x30>
     f17:	5d                   	pop    rbp
     f18:	ff e0                	jmp    rax
     f1a:	66 0f 1f 44 00 00    	nop    WORD PTR [rax+rax*1+0x0]
     f20:	5d                   	pop    rbp
     f21:	c3                   	ret    
     f22:	0f 1f 40 00          	nop    DWORD PTR [rax+0x0]
     f26:	66 2e 0f 1f 84 00 00 	nop    WORD PTR cs:[rax+rax*1+0x0]
     f2d:	00 00 00 

0000000000000f30 <register_tm_clones>:
     f30:	48 8d 3d 21 65 20 00 	lea    rdi,[rip+0x206521]        # 207458 <__TMC_END__>
     f37:	48 8d 35 1a 65 20 00 	lea    rsi,[rip+0x20651a]        # 207458 <__TMC_END__>
     f3e:	55                   	push   rbp
     f3f:	48 29 fe             	sub    rsi,rdi
     f42:	48 89 e5             	mov    rbp,rsp
     f45:	48 c1 fe 03          	sar    rsi,0x3
     f49:	48 89 f0             	mov    rax,rsi
     f4c:	48 c1 e8 3f          	shr    rax,0x3f
     f50:	48 01 c6             	add    rsi,rax
     f53:	48 d1 fe             	sar    rsi,1
     f56:	74 18                	je     f70 <register_tm_clones+0x40>
     f58:	48 8b 05 81 60 20 00 	mov    rax,QWORD PTR [rip+0x206081]        # 206fe0 <_ITM_registerTMCloneTable>
     f5f:	48 85 c0             	test   rax,rax
     f62:	74 0c                	je     f70 <register_tm_clones+0x40>
     f64:	5d                   	pop    rbp
     f65:	ff e0                	jmp    rax
     f67:	66 0f 1f 84 00 00 00 	nop    WORD PTR [rax+rax*1+0x0]
     f6e:	00 00 
     f70:	5d                   	pop    rbp
     f71:	c3                   	ret    
     f72:	0f 1f 40 00          	nop    DWORD PTR [rax+0x0]
     f76:	66 2e 0f 1f 84 00 00 	nop    WORD PTR cs:[rax+rax*1+0x0]
     f7d:	00 00 00 

0000000000000f80 <__do_global_dtors_aux>:
     f80:	80 3d d9 64 20 00 00 	cmp    BYTE PTR [rip+0x2064d9],0x0        # 207460 <completed.6972>
     f87:	75 27                	jne    fb0 <__do_global_dtors_aux+0x30>
     f89:	48 83 3d 57 60 20 00 	cmp    QWORD PTR [rip+0x206057],0x0        # 206fe8 <__cxa_finalize@GLIBC_2.2.5>
     f90:	00 
     f91:	55                   	push   rbp
     f92:	48 89 e5             	mov    rbp,rsp
     f95:	74 0c                	je     fa3 <__do_global_dtors_aux+0x23>
     f97:	48 8b 3d ea 60 20 00 	mov    rdi,QWORD PTR [rip+0x2060ea]        # 207088 <__dso_handle>
     f9e:	e8 0d ff ff ff       	call   eb0 <.plt.got>
     fa3:	e8 48 ff ff ff       	call   ef0 <deregister_tm_clones>
     fa8:	5d                   	pop    rbp
     fa9:	c6 05 b0 64 20 00 01 	mov    BYTE PTR [rip+0x2064b0],0x1        # 207460 <completed.6972>
     fb0:	f3 c3                	repz ret 
     fb2:	0f 1f 40 00          	nop    DWORD PTR [rax+0x0]
     fb6:	66 2e 0f 1f 84 00 00 	nop    WORD PTR cs:[rax+rax*1+0x0]
     fbd:	00 00 00 

0000000000000fc0 <frame_dummy>:
     fc0:	48 8d 3d 11 56 20 00 	lea    rdi,[rip+0x205611]        # 2065d8 <__JCR_END__>
     fc7:	48 83 3f 00          	cmp    QWORD PTR [rdi],0x0
     fcb:	75 0b                	jne    fd8 <frame_dummy+0x18>
     fcd:	e9 5e ff ff ff       	jmp    f30 <register_tm_clones>
     fd2:	66 0f 1f 44 00 00    	nop    WORD PTR [rax+rax*1+0x0]
     fd8:	48 8b 05 f9 5f 20 00 	mov    rax,QWORD PTR [rip+0x205ff9]        # 206fd8 <_Jv_RegisterClasses>
     fdf:	48 85 c0             	test   rax,rax
     fe2:	74 e9                	je     fcd <frame_dummy+0xd>
     fe4:	55                   	push   rbp
     fe5:	48 89 e5             	mov    rbp,rsp
     fe8:	ff d0                	call   rax
     fea:	5d                   	pop    rbp
     feb:	e9 40 ff ff ff       	jmp    f30 <register_tm_clones>

0000000000000ff0 <if_errno_printerr_exit>:
     ff0:	55                   	push   rbp
     ff1:	48 89 e5             	mov    rbp,rsp
     ff4:	e8 17 fe ff ff       	call   e10 <__errno_location@plt>
     ff9:	8b 00                	mov    eax,DWORD PTR [rax]
     ffb:	85 c0                	test   eax,eax
     ffd:	74 2c                	je     102b <if_errno_printerr_exit+0x3b>
     fff:	e8 0c fe ff ff       	call   e10 <__errno_location@plt>
    1004:	8b 00                	mov    eax,DWORD PTR [rax]
    1006:	89 c7                	mov    edi,eax
    1008:	e8 93 fe ff ff       	call   ea0 <strerror@plt>
    100d:	48 89 c6             	mov    rsi,rax
    1010:	48 8d 3d 1d 3b 00 00 	lea    rdi,[rip+0x3b1d]        # 4b34 <_IO_stdin_used+0x4>
    1017:	b8 00 00 00 00       	mov    eax,0x0
    101c:	e8 a2 02 00 00       	call   12c3 <ft_printf>
    1021:	bf 01 00 00 00       	mov    edi,0x1
    1026:	e8 65 fe ff ff       	call   e90 <exit@plt>
    102b:	90                   	nop
    102c:	5d                   	pop    rbp
    102d:	c3                   	ret    

000000000000102e <get_file_buffer>:
    102e:	55                   	push   rbp
    102f:	48 89 e5             	mov    rbp,rsp
    1032:	48 83 ec 30          	sub    rsp,0x30
    1036:	48 89 7d d8          	mov    QWORD PTR [rbp-0x28],rdi
    103a:	48 8b 45 d8          	mov    rax,QWORD PTR [rbp-0x28]
    103e:	be 00 00 00 00       	mov    esi,0x0
    1043:	48 89 c7             	mov    rdi,rax
    1046:	b8 00 00 00 00       	mov    eax,0x0
    104b:	e8 30 fe ff ff       	call   e80 <open@plt>
    1050:	89 45 fc             	mov    DWORD PTR [rbp-0x4],eax
    1053:	b8 00 00 00 00       	mov    eax,0x0
    1058:	e8 93 ff ff ff       	call   ff0 <if_errno_printerr_exit>
    105d:	8b 45 fc             	mov    eax,DWORD PTR [rbp-0x4]
    1060:	ba 02 00 00 00       	mov    edx,0x2
    1065:	be 00 00 00 00       	mov    esi,0x0
    106a:	89 c7                	mov    edi,eax
    106c:	e8 cf fd ff ff       	call   e40 <lseek@plt>
    1071:	48 89 45 f0          	mov    QWORD PTR [rbp-0x10],rax
    1075:	8b 45 fc             	mov    eax,DWORD PTR [rbp-0x4]
    1078:	ba 00 00 00 00       	mov    edx,0x0
    107d:	be 00 00 00 00       	mov    esi,0x0
    1082:	89 c7                	mov    edi,eax
    1084:	e8 b7 fd ff ff       	call   e40 <lseek@plt>
    1089:	b8 00 00 00 00       	mov    eax,0x0
    108e:	e8 5d ff ff ff       	call   ff0 <if_errno_printerr_exit>
    1093:	48 8b 45 f0          	mov    rax,QWORD PTR [rbp-0x10]
    1097:	48 89 c7             	mov    rdi,rax
    109a:	e8 d1 fd ff ff       	call   e70 <malloc@plt>
    109f:	48 89 45 e8          	mov    QWORD PTR [rbp-0x18],rax
    10a3:	48 8b 55 f0          	mov    rdx,QWORD PTR [rbp-0x10]
    10a7:	48 8b 4d e8          	mov    rcx,QWORD PTR [rbp-0x18]
    10ab:	8b 45 fc             	mov    eax,DWORD PTR [rbp-0x4]
    10ae:	48 89 ce             	mov    rsi,rcx
    10b1:	89 c7                	mov    edi,eax
    10b3:	e8 a8 fd ff ff       	call   e60 <read@plt>
    10b8:	b8 00 00 00 00       	mov    eax,0x0
    10bd:	e8 2e ff ff ff       	call   ff0 <if_errno_printerr_exit>
    10c2:	8b 45 fc             	mov    eax,DWORD PTR [rbp-0x4]
    10c5:	89 c7                	mov    edi,eax
    10c7:	e8 84 fd ff ff       	call   e50 <close@plt>
    10cc:	48 8b 45 e8          	mov    rax,QWORD PTR [rbp-0x18]
    10d0:	c9                   	leave  
    10d1:	c3                   	ret    

00000000000010d2 <init_player>:
    10d2:	55                   	push   rbp
    10d3:	48 89 e5             	mov    rbp,rsp
    10d6:	48 83 ec 10          	sub    rsp,0x10
    10da:	48 89 7d f8          	mov    QWORD PTR [rbp-0x8],rdi
    10de:	48 89 75 f0          	mov    QWORD PTR [rbp-0x10],rsi
    10e2:	48 8b 45 f0          	mov    rax,QWORD PTR [rbp-0x10]
    10e6:	48 89 c7             	mov    rdi,rax
    10e9:	e8 40 ff ff ff       	call   102e <get_file_buffer>
    10ee:	48 89 05 1b 6c 20 00 	mov    QWORD PTR [rip+0x206c1b],rax        # 207d10 <player.3485+0x890>
    10f5:	48 8b 15 14 6c 20 00 	mov    rdx,QWORD PTR [rip+0x206c14]        # 207d10 <player.3485+0x890>
    10fc:	48 8d 05 7d 63 20 00 	lea    rax,[rip+0x20637d]        # 207480 <player.3485>
    1103:	48 89 d6             	mov    rsi,rdx
    1106:	ba 12 01 00 00       	mov    edx,0x112
    110b:	48 89 c7             	mov    rdi,rax
    110e:	48 89 d1             	mov    rcx,rdx
    1111:	f3 48 a5             	rep movs QWORD PTR es:[rdi],QWORD PTR ds:[rsi]
    1114:	48 8d 3d 65 63 20 00 	lea    rdi,[rip+0x206365]        # 207480 <player.3485>
    111b:	e8 c5 00 00 00       	call   11e5 <print_header>
    1120:	90                   	nop
    1121:	c9                   	leave  
    1122:	c3                   	ret    

0000000000001123 <init_vm>:
    1123:	55                   	push   rbp
    1124:	48 89 e5             	mov    rbp,rsp
    1127:	48 83 ec 30          	sub    rsp,0x30
    112b:	48 89 7d e8          	mov    QWORD PTR [rbp-0x18],rdi
    112f:	89 75 e4             	mov    DWORD PTR [rbp-0x1c],esi
    1132:	48 89 55 d8          	mov    QWORD PTR [rbp-0x28],rdx
    1136:	c7 45 fc 00 00 00 00 	mov    DWORD PTR [rbp-0x4],0x0
    113d:	eb 26                	jmp    1165 <init_vm+0x42>
    113f:	8b 45 fc             	mov    eax,DWORD PTR [rbp-0x4]
    1142:	48 98                	cdqe   
    1144:	48 8d 14 c5 00 00 00 	lea    rdx,[rax*8+0x0]
    114b:	00 
    114c:	48 8b 45 d8          	mov    rax,QWORD PTR [rbp-0x28]
    1150:	48 01 d0             	add    rax,rdx
    1153:	48 8b 10             	mov    rdx,QWORD PTR [rax]
    1156:	48 8b 45 e8          	mov    rax,QWORD PTR [rbp-0x18]
    115a:	48 89 d6             	mov    rsi,rdx
    115d:	48 89 c7             	mov    rdi,rax
    1160:	e8 6d ff ff ff       	call   10d2 <init_player>
    1165:	83 45 fc 01          	add    DWORD PTR [rbp-0x4],0x1
    1169:	8b 45 fc             	mov    eax,DWORD PTR [rbp-0x4]
    116c:	3b 45 e4             	cmp    eax,DWORD PTR [rbp-0x1c]
    116f:	7c ce                	jl     113f <init_vm+0x1c>
    1171:	90                   	nop
    1172:	c9                   	leave  
    1173:	c3                   	ret    

0000000000001174 <main>:
    1174:	55                   	push   rbp
    1175:	48 89 e5             	mov    rbp,rsp
    1178:	48 83 ec 10          	sub    rsp,0x10
    117c:	89 7d fc             	mov    DWORD PTR [rbp-0x4],edi
    117f:	48 89 75 f0          	mov    QWORD PTR [rbp-0x10],rsi
    1183:	48 8b 55 f0          	mov    rdx,QWORD PTR [rbp-0x10]
    1187:	8b 45 fc             	mov    eax,DWORD PTR [rbp-0x4]
    118a:	89 c6                	mov    esi,eax
    118c:	48 8d 3d 8d 6b 20 00 	lea    rdi,[rip+0x206b8d]        # 207d20 <vm.3499>
    1193:	e8 8b ff ff ff       	call   1123 <init_vm>
    1198:	b8 00 00 00 00       	mov    eax,0x0
    119d:	c9                   	leave  
    119e:	c3                   	ret    

000000000000119f <byte_reverse>:
    119f:	55                   	push   rbp
    11a0:	48 89 e5             	mov    rbp,rsp
    11a3:	48 89 7d f8          	mov    QWORD PTR [rbp-0x8],rdi
    11a7:	48 8b 45 f8          	mov    rax,QWORD PTR [rbp-0x8]
    11ab:	48 c1 e0 10          	shl    rax,0x10
    11af:	48 89 c2             	mov    rdx,rax
    11b2:	48 8b 45 f8          	mov    rax,QWORD PTR [rbp-0x8]
    11b6:	48 c1 e0 08          	shl    rax,0x8
    11ba:	48 09 d0             	or     rax,rdx
    11bd:	25 00 00 ff 00       	and    eax,0xff0000
    11c2:	48 89 c2             	mov    rdx,rax
    11c5:	48 8b 45 f8          	mov    rax,QWORD PTR [rbp-0x8]
    11c9:	48 c1 e8 08          	shr    rax,0x8
    11cd:	25 00 ff 00 00       	and    eax,0xff00
    11d2:	48 09 c2             	or     rdx,rax
    11d5:	48 8b 45 f8          	mov    rax,QWORD PTR [rbp-0x8]
    11d9:	48 c1 e8 18          	shr    rax,0x18
    11dd:	0f b6 c0             	movzx  eax,al
    11e0:	48 09 d0             	or     rax,rdx
    11e3:	5d                   	pop    rbp
    11e4:	c3                   	ret    

00000000000011e5 <print_header>:
    11e5:	55                   	push   rbp
    11e6:	48 89 e5             	mov    rbp,rsp
    11e9:	48 83 ec 20          	sub    rsp,0x20
    11ed:	48 89 7d e8          	mov    QWORD PTR [rbp-0x18],rdi
    11f1:	48 8b 45 e8          	mov    rax,QWORD PTR [rbp-0x18]
    11f5:	48 89 45 f8          	mov    QWORD PTR [rbp-0x8],rax
    11f9:	48 8b 45 f8          	mov    rax,QWORD PTR [rbp-0x8]
    11fd:	8b 00                	mov    eax,DWORD PTR [rax]
    11ff:	89 45 f4             	mov    DWORD PTR [rbp-0xc],eax
    1202:	8b 45 f4             	mov    eax,DWORD PTR [rbp-0xc]
    1205:	89 c6                	mov    esi,eax
    1207:	48 8d 3d 31 39 00 00 	lea    rdi,[rip+0x3931]        # 4b3f <_IO_stdin_used+0xf>
    120e:	b8 00 00 00 00       	mov    eax,0x0
    1213:	e8 18 fc ff ff       	call   e30 <printf@plt>
    1218:	48 8d 3d 24 39 00 00 	lea    rdi,[rip+0x3924]        # 4b43 <_IO_stdin_used+0x13>
    121f:	b8 00 00 00 00       	mov    eax,0x0
    1224:	e8 9a 00 00 00       	call   12c3 <ft_printf>
    1229:	48 8b 45 e8          	mov    rax,QWORD PTR [rbp-0x18]
    122d:	8b 00                	mov    eax,DWORD PTR [rax]
    122f:	89 c6                	mov    esi,eax
    1231:	48 8d 3d 14 39 00 00 	lea    rdi,[rip+0x3914]        # 4b4c <_IO_stdin_used+0x1c>
    1238:	b8 00 00 00 00       	mov    eax,0x0
    123d:	e8 81 00 00 00       	call   12c3 <ft_printf>
    1242:	48 8b 45 e8          	mov    rax,QWORD PTR [rbp-0x18]
    1246:	48 83 c0 04          	add    rax,0x4
    124a:	48 89 c6             	mov    rsi,rax
    124d:	48 8d 3d 11 39 00 00 	lea    rdi,[rip+0x3911]        # 4b65 <_IO_stdin_used+0x35>
    1254:	b8 00 00 00 00       	mov    eax,0x0
    1259:	e8 65 00 00 00       	call   12c3 <ft_printf>
    125e:	48 8b 45 e8          	mov    rax,QWORD PTR [rbp-0x18]
    1262:	8b 80 88 00 00 00    	mov    eax,DWORD PTR [rax+0x88]
    1268:	89 c6                	mov    esi,eax
    126a:	48 8d 3d 05 39 00 00 	lea    rdi,[rip+0x3905]        # 4b76 <_IO_stdin_used+0x46>
    1271:	b8 00 00 00 00       	mov    eax,0x0
    1276:	e8 48 00 00 00       	call   12c3 <ft_printf>
    127b:	48 8b 45 e8          	mov    rax,QWORD PTR [rbp-0x18]
    127f:	48 05 8c 00 00 00    	add    rax,0x8c
    1285:	48 89 c6             	mov    rsi,rax
    1288:	48 8d 3d 03 39 00 00 	lea    rdi,[rip+0x3903]        # 4b92 <_IO_stdin_used+0x62>
    128f:	b8 00 00 00 00       	mov    eax,0x0
    1294:	e8 2a 00 00 00       	call   12c3 <ft_printf>
    1299:	48 8d 3d 01 39 00 00 	lea    rdi,[rip+0x3901]        # 4ba1 <_IO_stdin_used+0x71>
    12a0:	b8 00 00 00 00       	mov    eax,0x0
    12a5:	e8 19 00 00 00       	call   12c3 <ft_printf>
    12aa:	be f3 83 ea 00       	mov    esi,0xea83f3
    12af:	48 8d 3d f1 38 00 00 	lea    rdi,[rip+0x38f1]        # 4ba7 <_IO_stdin_used+0x77>
    12b6:	b8 00 00 00 00       	mov    eax,0x0
    12bb:	e8 03 00 00 00       	call   12c3 <ft_printf>
    12c0:	90                   	nop
    12c1:	c9                   	leave  
    12c2:	c3                   	ret    

00000000000012c3 <ft_printf>:
    12c3:	55                   	push   rbp
    12c4:	48 89 e5             	mov    rbp,rsp
    12c7:	48 81 ec e0 00 00 00 	sub    rsp,0xe0
    12ce:	48 89 bd 28 ff ff ff 	mov    QWORD PTR [rbp-0xd8],rdi
    12d5:	48 89 b5 58 ff ff ff 	mov    QWORD PTR [rbp-0xa8],rsi
    12dc:	48 89 95 60 ff ff ff 	mov    QWORD PTR [rbp-0xa0],rdx
    12e3:	48 89 8d 68 ff ff ff 	mov    QWORD PTR [rbp-0x98],rcx
    12ea:	4c 89 85 70 ff ff ff 	mov    QWORD PTR [rbp-0x90],r8
    12f1:	4c 89 8d 78 ff ff ff 	mov    QWORD PTR [rbp-0x88],r9
    12f8:	84 c0                	test   al,al
    12fa:	74 20                	je     131c <ft_printf+0x59>
    12fc:	0f 29 45 80          	movaps XMMWORD PTR [rbp-0x80],xmm0
    1300:	0f 29 4d 90          	movaps XMMWORD PTR [rbp-0x70],xmm1
    1304:	0f 29 55 a0          	movaps XMMWORD PTR [rbp-0x60],xmm2
    1308:	0f 29 5d b0          	movaps XMMWORD PTR [rbp-0x50],xmm3
    130c:	0f 29 65 c0          	movaps XMMWORD PTR [rbp-0x40],xmm4
    1310:	0f 29 6d d0          	movaps XMMWORD PTR [rbp-0x30],xmm5
    1314:	0f 29 75 e0          	movaps XMMWORD PTR [rbp-0x20],xmm6
    1318:	0f 29 7d f0          	movaps XMMWORD PTR [rbp-0x10],xmm7
    131c:	c7 85 30 ff ff ff 08 	mov    DWORD PTR [rbp-0xd0],0x8
    1323:	00 00 00 
    1326:	c7 85 34 ff ff ff 30 	mov    DWORD PTR [rbp-0xcc],0x30
    132d:	00 00 00 
    1330:	48 8d 45 10          	lea    rax,[rbp+0x10]
    1334:	48 89 85 38 ff ff ff 	mov    QWORD PTR [rbp-0xc8],rax
    133b:	48 8d 85 50 ff ff ff 	lea    rax,[rbp-0xb0]
    1342:	48 89 85 40 ff ff ff 	mov    QWORD PTR [rbp-0xc0],rax
    1349:	48 8d 95 30 ff ff ff 	lea    rdx,[rbp-0xd0]
    1350:	48 8b 85 28 ff ff ff 	mov    rax,QWORD PTR [rbp-0xd8]
    1357:	48 89 d6             	mov    rsi,rdx
    135a:	48 89 c7             	mov    rdi,rax
    135d:	e8 0e 00 00 00       	call   1370 <ft_vprintf>
    1362:	89 85 4c ff ff ff    	mov    DWORD PTR [rbp-0xb4],eax
    1368:	8b 85 4c ff ff ff    	mov    eax,DWORD PTR [rbp-0xb4]
    136e:	c9                   	leave  
    136f:	c3                   	ret    

0000000000001370 <ft_vprintf>:
    1370:	55                   	push   rbp
    1371:	48 89 e5             	mov    rbp,rsp
    1374:	48 83 ec 10          	sub    rsp,0x10
    1378:	48 89 7d f8          	mov    QWORD PTR [rbp-0x8],rdi
    137c:	48 89 75 f0          	mov    QWORD PTR [rbp-0x10],rsi
    1380:	48 8b 55 f0          	mov    rdx,QWORD PTR [rbp-0x10]
    1384:	48 8b 45 f8          	mov    rax,QWORD PTR [rbp-0x8]
    1388:	48 89 c6             	mov    rsi,rax
    138b:	bf 01 00 00 00       	mov    edi,0x1
    1390:	e8 b3 00 00 00       	call   1448 <ft_vdprintf>
    1395:	c9                   	leave  
    1396:	c3                   	ret    

0000000000001397 <ft_dprintf>:
    1397:	55                   	push   rbp
    1398:	48 89 e5             	mov    rbp,rsp
    139b:	48 81 ec e0 00 00 00 	sub    rsp,0xe0
    13a2:	89 bd 2c ff ff ff    	mov    DWORD PTR [rbp-0xd4],edi
    13a8:	48 89 b5 20 ff ff ff 	mov    QWORD PTR [rbp-0xe0],rsi
    13af:	48 89 95 60 ff ff ff 	mov    QWORD PTR [rbp-0xa0],rdx
    13b6:	48 89 8d 68 ff ff ff 	mov    QWORD PTR [rbp-0x98],rcx
    13bd:	4c 89 85 70 ff ff ff 	mov    QWORD PTR [rbp-0x90],r8
    13c4:	4c 89 8d 78 ff ff ff 	mov    QWORD PTR [rbp-0x88],r9
    13cb:	84 c0                	test   al,al
    13cd:	74 20                	je     13ef <ft_dprintf+0x58>
    13cf:	0f 29 45 80          	movaps XMMWORD PTR [rbp-0x80],xmm0
    13d3:	0f 29 4d 90          	movaps XMMWORD PTR [rbp-0x70],xmm1
    13d7:	0f 29 55 a0          	movaps XMMWORD PTR [rbp-0x60],xmm2
    13db:	0f 29 5d b0          	movaps XMMWORD PTR [rbp-0x50],xmm3
    13df:	0f 29 65 c0          	movaps XMMWORD PTR [rbp-0x40],xmm4
    13e3:	0f 29 6d d0          	movaps XMMWORD PTR [rbp-0x30],xmm5
    13e7:	0f 29 75 e0          	movaps XMMWORD PTR [rbp-0x20],xmm6
    13eb:	0f 29 7d f0          	movaps XMMWORD PTR [rbp-0x10],xmm7
    13ef:	c7 85 30 ff ff ff 10 	mov    DWORD PTR [rbp-0xd0],0x10
    13f6:	00 00 00 
    13f9:	c7 85 34 ff ff ff 30 	mov    DWORD PTR [rbp-0xcc],0x30
    1400:	00 00 00 
    1403:	48 8d 45 10          	lea    rax,[rbp+0x10]
    1407:	48 89 85 38 ff ff ff 	mov    QWORD PTR [rbp-0xc8],rax
    140e:	48 8d 85 50 ff ff ff 	lea    rax,[rbp-0xb0]
    1415:	48 89 85 40 ff ff ff 	mov    QWORD PTR [rbp-0xc0],rax
    141c:	48 8d 95 30 ff ff ff 	lea    rdx,[rbp-0xd0]
    1423:	48 8b 8d 20 ff ff ff 	mov    rcx,QWORD PTR [rbp-0xe0]
    142a:	8b 85 2c ff ff ff    	mov    eax,DWORD PTR [rbp-0xd4]
    1430:	48 89 ce             	mov    rsi,rcx
    1433:	89 c7                	mov    edi,eax
    1435:	e8 0e 00 00 00       	call   1448 <ft_vdprintf>
    143a:	89 85 4c ff ff ff    	mov    DWORD PTR [rbp-0xb4],eax
    1440:	8b 85 4c ff ff ff    	mov    eax,DWORD PTR [rbp-0xb4]
    1446:	c9                   	leave  
    1447:	c3                   	ret    

0000000000001448 <ft_vdprintf>:
    1448:	55                   	push   rbp
    1449:	48 89 e5             	mov    rbp,rsp
    144c:	48 83 ec 30          	sub    rsp,0x30
    1450:	89 7d ec             	mov    DWORD PTR [rbp-0x14],edi
    1453:	48 89 75 e0          	mov    QWORD PTR [rbp-0x20],rsi
    1457:	48 89 55 d8          	mov    QWORD PTR [rbp-0x28],rdx
    145b:	48 8b 55 d8          	mov    rdx,QWORD PTR [rbp-0x28]
    145f:	48 8b 4d e0          	mov    rcx,QWORD PTR [rbp-0x20]
    1463:	48 8d 45 f0          	lea    rax,[rbp-0x10]
    1467:	48 89 ce             	mov    rsi,rcx
    146a:	48 89 c7             	mov    rdi,rax
    146d:	e8 e8 00 00 00       	call   155a <ft_vasprintf>
    1472:	89 45 fc             	mov    DWORD PTR [rbp-0x4],eax
    1475:	8b 45 fc             	mov    eax,DWORD PTR [rbp-0x4]
    1478:	48 63 d0             	movsxd rdx,eax
    147b:	48 8b 4d f0          	mov    rcx,QWORD PTR [rbp-0x10]
    147f:	8b 45 ec             	mov    eax,DWORD PTR [rbp-0x14]
    1482:	48 89 ce             	mov    rsi,rcx
    1485:	89 c7                	mov    edi,eax
    1487:	e8 94 f9 ff ff       	call   e20 <write@plt>
    148c:	48 8b 45 f0          	mov    rax,QWORD PTR [rbp-0x10]
    1490:	48 85 c0             	test   rax,rax
    1493:	74 0c                	je     14a1 <ft_vdprintf+0x59>
    1495:	48 8b 45 f0          	mov    rax,QWORD PTR [rbp-0x10]
    1499:	48 89 c7             	mov    rdi,rax
    149c:	e8 5f f9 ff ff       	call   e00 <free@plt>
    14a1:	8b 45 fc             	mov    eax,DWORD PTR [rbp-0x4]
    14a4:	c9                   	leave  
    14a5:	c3                   	ret    

00000000000014a6 <ft_asprintf>:
    14a6:	55                   	push   rbp
    14a7:	48 89 e5             	mov    rbp,rsp
    14aa:	48 81 ec e0 00 00 00 	sub    rsp,0xe0
    14b1:	48 89 bd 28 ff ff ff 	mov    QWORD PTR [rbp-0xd8],rdi
    14b8:	48 89 b5 20 ff ff ff 	mov    QWORD PTR [rbp-0xe0],rsi
    14bf:	48 89 95 60 ff ff ff 	mov    QWORD PTR [rbp-0xa0],rdx
    14c6:	48 89 8d 68 ff ff ff 	mov    QWORD PTR [rbp-0x98],rcx
    14cd:	4c 89 85 70 ff ff ff 	mov    QWORD PTR [rbp-0x90],r8
    14d4:	4c 89 8d 78 ff ff ff 	mov    QWORD PTR [rbp-0x88],r9
    14db:	84 c0                	test   al,al
    14dd:	74 20                	je     14ff <ft_asprintf+0x59>
    14df:	0f 29 45 80          	movaps XMMWORD PTR [rbp-0x80],xmm0
    14e3:	0f 29 4d 90          	movaps XMMWORD PTR [rbp-0x70],xmm1
    14e7:	0f 29 55 a0          	movaps XMMWORD PTR [rbp-0x60],xmm2
    14eb:	0f 29 5d b0          	movaps XMMWORD PTR [rbp-0x50],xmm3
    14ef:	0f 29 65 c0          	movaps XMMWORD PTR [rbp-0x40],xmm4
    14f3:	0f 29 6d d0          	movaps XMMWORD PTR [rbp-0x30],xmm5
    14f7:	0f 29 75 e0          	movaps XMMWORD PTR [rbp-0x20],xmm6
    14fb:	0f 29 7d f0          	movaps XMMWORD PTR [rbp-0x10],xmm7
    14ff:	c7 85 30 ff ff ff 10 	mov    DWORD PTR [rbp-0xd0],0x10
    1506:	00 00 00 
    1509:	c7 85 34 ff ff ff 30 	mov    DWORD PTR [rbp-0xcc],0x30
    1510:	00 00 00 
    1513:	48 8d 45 10          	lea    rax,[rbp+0x10]
    1517:	48 89 85 38 ff ff ff 	mov    QWORD PTR [rbp-0xc8],rax
    151e:	48 8d 85 50 ff ff ff 	lea    rax,[rbp-0xb0]
    1525:	48 89 85 40 ff ff ff 	mov    QWORD PTR [rbp-0xc0],rax
    152c:	48 8d 95 30 ff ff ff 	lea    rdx,[rbp-0xd0]
    1533:	48 8b 8d 20 ff ff ff 	mov    rcx,QWORD PTR [rbp-0xe0]
    153a:	48 8b 85 28 ff ff ff 	mov    rax,QWORD PTR [rbp-0xd8]
    1541:	48 89 ce             	mov    rsi,rcx
    1544:	48 89 c7             	mov    rdi,rax
    1547:	e8 0e 00 00 00       	call   155a <ft_vasprintf>
    154c:	89 85 4c ff ff ff    	mov    DWORD PTR [rbp-0xb4],eax
    1552:	8b 85 4c ff ff ff    	mov    eax,DWORD PTR [rbp-0xb4]
    1558:	c9                   	leave  
    1559:	c3                   	ret    

000000000000155a <ft_vasprintf>:
    155a:	55                   	push   rbp
    155b:	48 89 e5             	mov    rbp,rsp
    155e:	48 81 ec a0 00 00 00 	sub    rsp,0xa0
    1565:	48 89 bd 78 ff ff ff 	mov    QWORD PTR [rbp-0x88],rdi
    156c:	48 89 b5 70 ff ff ff 	mov    QWORD PTR [rbp-0x90],rsi
    1573:	48 89 95 68 ff ff ff 	mov    QWORD PTR [rbp-0x98],rdx
    157a:	c7 45 bc 00 00 00 00 	mov    DWORD PTR [rbp-0x44],0x0
    1581:	48 83 bd 78 ff ff ff 	cmp    QWORD PTR [rbp-0x88],0x0
    1588:	00 
    1589:	74 2a                	je     15b5 <ft_vasprintf+0x5b>
    158b:	bf 00 00 00 00       	mov    edi,0x0
    1590:	e8 46 2d 00 00       	call   42db <ft_strnew>
    1595:	48 89 c2             	mov    rdx,rax
    1598:	48 8b 85 78 ff ff ff 	mov    rax,QWORD PTR [rbp-0x88]
    159f:	48 89 10             	mov    QWORD PTR [rax],rdx
    15a2:	48 8b 85 78 ff ff ff 	mov    rax,QWORD PTR [rbp-0x88]
    15a9:	48 8b 00             	mov    rax,QWORD PTR [rax]
    15ac:	48 85 c0             	test   rax,rax
    15af:	0f 85 84 01 00 00    	jne    1739 <ft_vasprintf+0x1df>
    15b5:	b8 ff ff ff ff       	mov    eax,0xffffffff
    15ba:	e9 8f 01 00 00       	jmp    174e <ft_vasprintf+0x1f4>
    15bf:	48 8b 85 70 ff ff ff 	mov    rax,QWORD PTR [rbp-0x90]
    15c6:	0f b6 00             	movzx  eax,BYTE PTR [rax]
    15c9:	3c 7b                	cmp    al,0x7b
    15cb:	75 4f                	jne    161c <ft_vasprintf+0xc2>
    15cd:	48 8d 55 80          	lea    rdx,[rbp-0x80]
    15d1:	48 8d 85 70 ff ff ff 	lea    rax,[rbp-0x90]
    15d8:	48 89 d6             	mov    rsi,rdx
    15db:	48 89 c7             	mov    rdi,rax
    15de:	e8 f2 1b 00 00       	call   31d5 <pfsubstr>
    15e3:	48 8d 75 bc          	lea    rsi,[rbp-0x44]
    15e7:	48 8b 8d 78 ff ff ff 	mov    rcx,QWORD PTR [rbp-0x88]
    15ee:	48 83 ec 08          	sub    rsp,0x8
    15f2:	ff 70 30             	push   QWORD PTR [rax+0x30]
    15f5:	ff 70 28             	push   QWORD PTR [rax+0x28]
    15f8:	ff 70 20             	push   QWORD PTR [rax+0x20]
    15fb:	ff 70 18             	push   QWORD PTR [rax+0x18]
    15fe:	ff 70 10             	push   QWORD PTR [rax+0x10]
    1601:	ff 70 08             	push   QWORD PTR [rax+0x8]
    1604:	ff 30                	push   QWORD PTR [rax]
    1606:	ba 00 00 00 00       	mov    edx,0x0
    160b:	48 89 cf             	mov    rdi,rcx
    160e:	e8 61 16 00 00       	call   2c74 <pfappend>
    1613:	48 83 c4 40          	add    rsp,0x40
    1617:	e9 00 01 00 00       	jmp    171c <ft_vasprintf+0x1c2>
    161c:	48 8b 85 70 ff ff ff 	mov    rax,QWORD PTR [rbp-0x90]
    1623:	0f b6 00             	movzx  eax,BYTE PTR [rax]
    1626:	3c 25                	cmp    al,0x25
    1628:	75 56                	jne    1680 <ft_vasprintf+0x126>
    162a:	48 8d 55 80          	lea    rdx,[rbp-0x80]
    162e:	48 8b 8d 68 ff ff ff 	mov    rcx,QWORD PTR [rbp-0x98]
    1635:	48 8d 85 70 ff ff ff 	lea    rax,[rbp-0x90]
    163c:	48 89 ce             	mov    rsi,rcx
    163f:	48 89 c7             	mov    rdi,rax
    1642:	e8 b4 04 00 00       	call   1afb <pflexer>
    1647:	48 8d 75 bc          	lea    rsi,[rbp-0x44]
    164b:	48 8b 8d 78 ff ff ff 	mov    rcx,QWORD PTR [rbp-0x88]
    1652:	48 83 ec 08          	sub    rsp,0x8
    1656:	ff 70 30             	push   QWORD PTR [rax+0x30]
    1659:	ff 70 28             	push   QWORD PTR [rax+0x28]
    165c:	ff 70 20             	push   QWORD PTR [rax+0x20]
    165f:	ff 70 18             	push   QWORD PTR [rax+0x18]
    1662:	ff 70 10             	push   QWORD PTR [rax+0x10]
    1665:	ff 70 08             	push   QWORD PTR [rax+0x8]
    1668:	ff 30                	push   QWORD PTR [rax]
    166a:	ba 01 00 00 00       	mov    edx,0x1
    166f:	48 89 cf             	mov    rdi,rcx
    1672:	e8 fd 15 00 00       	call   2c74 <pfappend>
    1677:	48 83 c4 40          	add    rsp,0x40
    167b:	e9 9c 00 00 00       	jmp    171c <ft_vasprintf+0x1c2>
    1680:	48 8b 85 70 ff ff ff 	mov    rax,QWORD PTR [rbp-0x90]
    1687:	48 8d 35 2d 35 00 00 	lea    rsi,[rip+0x352d]        # 4bbb <_IO_stdin_used+0x8b>
    168e:	48 89 c7             	mov    rdi,rax
    1691:	e8 c6 30 00 00       	call   475c <ft_strebrk>
    1696:	48 89 c2             	mov    rdx,rax
    1699:	48 8b 85 70 ff ff ff 	mov    rax,QWORD PTR [rbp-0x90]
    16a0:	48 29 c2             	sub    rdx,rax
    16a3:	48 89 d0             	mov    rax,rdx
    16a6:	89 45 fc             	mov    DWORD PTR [rbp-0x4],eax
    16a9:	48 8d 55 c0          	lea    rdx,[rbp-0x40]
    16ad:	b8 00 00 00 00       	mov    eax,0x0
    16b2:	b9 07 00 00 00       	mov    ecx,0x7
    16b7:	48 89 d7             	mov    rdi,rdx
    16ba:	f3 48 ab             	rep stos QWORD PTR es:[rdi],rax
    16bd:	48 8b 85 70 ff ff ff 	mov    rax,QWORD PTR [rbp-0x90]
    16c4:	48 89 45 e8          	mov    QWORD PTR [rbp-0x18],rax
    16c8:	8b 45 fc             	mov    eax,DWORD PTR [rbp-0x4]
    16cb:	89 45 f0             	mov    DWORD PTR [rbp-0x10],eax
    16ce:	48 8d 4d bc          	lea    rcx,[rbp-0x44]
    16d2:	48 8b 85 78 ff ff ff 	mov    rax,QWORD PTR [rbp-0x88]
    16d9:	48 83 ec 08          	sub    rsp,0x8
    16dd:	ff 75 f0             	push   QWORD PTR [rbp-0x10]
    16e0:	ff 75 e8             	push   QWORD PTR [rbp-0x18]
    16e3:	ff 75 e0             	push   QWORD PTR [rbp-0x20]
    16e6:	ff 75 d8             	push   QWORD PTR [rbp-0x28]
    16e9:	ff 75 d0             	push   QWORD PTR [rbp-0x30]
    16ec:	ff 75 c8             	push   QWORD PTR [rbp-0x38]
    16ef:	ff 75 c0             	push   QWORD PTR [rbp-0x40]
    16f2:	ba 00 00 00 00       	mov    edx,0x0
    16f7:	48 89 ce             	mov    rsi,rcx
    16fa:	48 89 c7             	mov    rdi,rax
    16fd:	e8 72 15 00 00       	call   2c74 <pfappend>
    1702:	48 83 c4 40          	add    rsp,0x40
    1706:	48 8b 95 70 ff ff ff 	mov    rdx,QWORD PTR [rbp-0x90]
    170d:	8b 45 fc             	mov    eax,DWORD PTR [rbp-0x4]
    1710:	48 98                	cdqe   
    1712:	48 01 d0             	add    rax,rdx
    1715:	48 89 85 70 ff ff ff 	mov    QWORD PTR [rbp-0x90],rax
    171c:	48 8b 85 78 ff ff ff 	mov    rax,QWORD PTR [rbp-0x88]
    1723:	48 8b 00             	mov    rax,QWORD PTR [rax]
    1726:	48 85 c0             	test   rax,rax
    1729:	74 20                	je     174b <ft_vasprintf+0x1f1>
    172b:	48 8b 85 70 ff ff ff 	mov    rax,QWORD PTR [rbp-0x90]
    1732:	0f b6 00             	movzx  eax,BYTE PTR [rax]
    1735:	84 c0                	test   al,al
    1737:	74 12                	je     174b <ft_vasprintf+0x1f1>
    1739:	48 8b 85 70 ff ff ff 	mov    rax,QWORD PTR [rbp-0x90]
    1740:	0f b6 00             	movzx  eax,BYTE PTR [rax]
    1743:	84 c0                	test   al,al
    1745:	0f 85 74 fe ff ff    	jne    15bf <ft_vasprintf+0x65>
    174b:	8b 45 bc             	mov    eax,DWORD PTR [rbp-0x44]
    174e:	c9                   	leave  
    174f:	c3                   	ret    

0000000000001750 <pfpadleft>:
    1750:	55                   	push   rbp
    1751:	48 89 e5             	mov    rbp,rsp
    1754:	41 55                	push   r13
    1756:	41 54                	push   r12
    1758:	53                   	push   rbx
    1759:	48 83 ec 28          	sub    rsp,0x28
    175d:	48 89 7d d8          	mov    QWORD PTR [rbp-0x28],rdi
    1761:	89 75 d4             	mov    DWORD PTR [rbp-0x2c],esi
    1764:	48 89 55 c8          	mov    QWORD PTR [rbp-0x38],rdx
    1768:	8b 45 d4             	mov    eax,DWORD PTR [rbp-0x2c]
    176b:	48 63 d0             	movsxd rdx,eax
    176e:	48 8b 45 d8          	mov    rax,QWORD PTR [rbp-0x28]
    1772:	8b 40 04             	mov    eax,DWORD PTR [rax+0x4]
    1775:	83 e0 10             	and    eax,0x10
    1778:	85 c0                	test   eax,eax
    177a:	74 12                	je     178e <pfpadleft+0x3e>
    177c:	48 8b 45 d8          	mov    rax,QWORD PTR [rbp-0x28]
    1780:	8b 40 0c             	mov    eax,DWORD PTR [rax+0xc]
    1783:	85 c0                	test   eax,eax
    1785:	7f 07                	jg     178e <pfpadleft+0x3e>
    1787:	b9 30 00 00 00       	mov    ecx,0x30
    178c:	eb 05                	jmp    1793 <pfpadleft+0x43>
    178e:	b9 20 00 00 00       	mov    ecx,0x20
    1793:	48 8b 45 c8          	mov    rax,QWORD PTR [rbp-0x38]
    1797:	89 ce                	mov    esi,ecx
    1799:	48 89 c7             	mov    rdi,rax
    179c:	e8 49 24 00 00       	call   3bea <ft_memset>
    17a1:	48 8b 45 d8          	mov    rax,QWORD PTR [rbp-0x28]
    17a5:	8b 40 30             	mov    eax,DWORD PTR [rax+0x30]
    17a8:	48 63 d0             	movsxd rdx,eax
    17ab:	48 8b 45 d8          	mov    rax,QWORD PTR [rbp-0x28]
    17af:	48 8b 40 28          	mov    rax,QWORD PTR [rax+0x28]
    17b3:	8b 4d d4             	mov    ecx,DWORD PTR [rbp-0x2c]
    17b6:	48 63 f1             	movsxd rsi,ecx
    17b9:	48 8b 4d c8          	mov    rcx,QWORD PTR [rbp-0x38]
    17bd:	48 01 f1             	add    rcx,rsi
    17c0:	48 89 c6             	mov    rsi,rax
    17c3:	48 89 cf             	mov    rdi,rcx
    17c6:	e8 f1 25 00 00       	call   3dbc <ft_memcpy>
    17cb:	48 8b 45 d8          	mov    rax,QWORD PTR [rbp-0x28]
    17cf:	48 8b 40 20          	mov    rax,QWORD PTR [rax+0x20]
    17d3:	48 85 c0             	test   rax,rax
    17d6:	74 3a                	je     1812 <pfpadleft+0xc2>
    17d8:	48 8b 45 d8          	mov    rax,QWORD PTR [rbp-0x28]
    17dc:	8b 40 04             	mov    eax,DWORD PTR [rax+0x4]
    17df:	83 e0 10             	and    eax,0x10
    17e2:	85 c0                	test   eax,eax
    17e4:	74 2c                	je     1812 <pfpadleft+0xc2>
    17e6:	48 8b 45 d8          	mov    rax,QWORD PTR [rbp-0x28]
    17ea:	48 8b 40 20          	mov    rax,QWORD PTR [rax+0x20]
    17ee:	48 89 c7             	mov    rdi,rax
    17f1:	e8 93 27 00 00       	call   3f89 <ft_strlen>
    17f6:	48 89 c2             	mov    rdx,rax
    17f9:	48 8b 45 d8          	mov    rax,QWORD PTR [rbp-0x28]
    17fd:	48 8b 48 20          	mov    rcx,QWORD PTR [rax+0x20]
    1801:	48 8b 45 c8          	mov    rax,QWORD PTR [rbp-0x38]
    1805:	48 89 ce             	mov    rsi,rcx
    1808:	48 89 c7             	mov    rdi,rax
    180b:	e8 ac 25 00 00       	call   3dbc <ft_memcpy>
    1810:	eb 67                	jmp    1879 <pfpadleft+0x129>
    1812:	48 8b 45 d8          	mov    rax,QWORD PTR [rbp-0x28]
    1816:	48 8b 40 20          	mov    rax,QWORD PTR [rax+0x20]
    181a:	48 85 c0             	test   rax,rax
    181d:	74 5a                	je     1879 <pfpadleft+0x129>
    181f:	48 8b 45 d8          	mov    rax,QWORD PTR [rbp-0x28]
    1823:	8b 40 04             	mov    eax,DWORD PTR [rax+0x4]
    1826:	83 e0 10             	and    eax,0x10
    1829:	85 c0                	test   eax,eax
    182b:	75 4c                	jne    1879 <pfpadleft+0x129>
    182d:	48 8b 45 d8          	mov    rax,QWORD PTR [rbp-0x28]
    1831:	48 8b 40 20          	mov    rax,QWORD PTR [rax+0x20]
    1835:	48 89 c7             	mov    rdi,rax
    1838:	e8 4c 27 00 00       	call   3f89 <ft_strlen>
    183d:	49 89 c5             	mov    r13,rax
    1840:	48 8b 45 d8          	mov    rax,QWORD PTR [rbp-0x28]
    1844:	48 8b 58 20          	mov    rbx,QWORD PTR [rax+0x20]
    1848:	8b 45 d4             	mov    eax,DWORD PTR [rbp-0x2c]
    184b:	4c 63 e0             	movsxd r12,eax
    184e:	48 8b 45 d8          	mov    rax,QWORD PTR [rbp-0x28]
    1852:	48 8b 40 20          	mov    rax,QWORD PTR [rax+0x20]
    1856:	48 89 c7             	mov    rdi,rax
    1859:	e8 2b 27 00 00       	call   3f89 <ft_strlen>
    185e:	4c 89 e2             	mov    rdx,r12
    1861:	48 29 c2             	sub    rdx,rax
    1864:	48 8b 45 c8          	mov    rax,QWORD PTR [rbp-0x38]
    1868:	48 01 d0             	add    rax,rdx
    186b:	4c 89 ea             	mov    rdx,r13
    186e:	48 89 de             	mov    rsi,rbx
    1871:	48 89 c7             	mov    rdi,rax
    1874:	e8 43 25 00 00       	call   3dbc <ft_memcpy>
    1879:	90                   	nop
    187a:	48 83 c4 28          	add    rsp,0x28
    187e:	5b                   	pop    rbx
    187f:	41 5c                	pop    r12
    1881:	41 5d                	pop    r13
    1883:	5d                   	pop    rbp
    1884:	c3                   	ret    

0000000000001885 <pfpad>:
    1885:	55                   	push   rbp
    1886:	48 89 e5             	mov    rbp,rsp
    1889:	48 83 ec 20          	sub    rsp,0x20
    188d:	48 89 7d e8          	mov    QWORD PTR [rbp-0x18],rdi
    1891:	48 8b 45 e8          	mov    rax,QWORD PTR [rbp-0x18]
    1895:	48 8b 40 20          	mov    rax,QWORD PTR [rax+0x20]
    1899:	48 85 c0             	test   rax,rax
    189c:	74 57                	je     18f5 <pfpad+0x70>
    189e:	48 8b 45 e8          	mov    rax,QWORD PTR [rbp-0x18]
    18a2:	8b 40 04             	mov    eax,DWORD PTR [rax+0x4]
    18a5:	83 e0 02             	and    eax,0x2
    18a8:	85 c0                	test   eax,eax
    18aa:	74 49                	je     18f5 <pfpad+0x70>
    18ac:	48 8b 45 e8          	mov    rax,QWORD PTR [rbp-0x18]
    18b0:	48 8d 48 28          	lea    rcx,[rax+0x28]
    18b4:	48 8b 45 e8          	mov    rax,QWORD PTR [rbp-0x18]
    18b8:	48 8b 40 20          	mov    rax,QWORD PTR [rax+0x20]
    18bc:	ba 00 00 00 00       	mov    edx,0x0
    18c1:	48 89 ce             	mov    rsi,rcx
    18c4:	48 89 c7             	mov    rdi,rax
    18c7:	e8 84 14 00 00       	call   2d50 <pfprepend>
    18cc:	48 8b 45 e8          	mov    rax,QWORD PTR [rbp-0x18]
    18d0:	48 8b 40 20          	mov    rax,QWORD PTR [rax+0x20]
    18d4:	48 89 c7             	mov    rdi,rax
    18d7:	e8 ad 26 00 00       	call   3f89 <ft_strlen>
    18dc:	48 89 c2             	mov    rdx,rax
    18df:	48 8b 45 e8          	mov    rax,QWORD PTR [rbp-0x18]
    18e3:	8b 40 30             	mov    eax,DWORD PTR [rax+0x30]
    18e6:	89 c1                	mov    ecx,eax
    18e8:	89 d0                	mov    eax,edx
    18ea:	01 c8                	add    eax,ecx
    18ec:	89 c2                	mov    edx,eax
    18ee:	48 8b 45 e8          	mov    rax,QWORD PTR [rbp-0x18]
    18f2:	89 50 30             	mov    DWORD PTR [rax+0x30],edx
    18f5:	48 8b 45 e8          	mov    rax,QWORD PTR [rbp-0x18]
    18f9:	8b 50 08             	mov    edx,DWORD PTR [rax+0x8]
    18fc:	48 8b 45 e8          	mov    rax,QWORD PTR [rbp-0x18]
    1900:	8b 40 30             	mov    eax,DWORD PTR [rax+0x30]
    1903:	29 c2                	sub    edx,eax
    1905:	89 d0                	mov    eax,edx
    1907:	89 45 fc             	mov    DWORD PTR [rbp-0x4],eax
    190a:	48 8b 45 e8          	mov    rax,QWORD PTR [rbp-0x18]
    190e:	8b 50 30             	mov    edx,DWORD PTR [rax+0x30]
    1911:	8b 45 fc             	mov    eax,DWORD PTR [rbp-0x4]
    1914:	01 d0                	add    eax,edx
    1916:	83 c0 02             	add    eax,0x2
    1919:	48 98                	cdqe   
    191b:	be 08 00 00 00       	mov    esi,0x8
    1920:	48 89 c7             	mov    rdi,rax
    1923:	e8 19 2a 00 00       	call   4341 <ft_calloc>
    1928:	48 89 45 f0          	mov    QWORD PTR [rbp-0x10],rax
    192c:	48 83 7d f0 00       	cmp    QWORD PTR [rbp-0x10],0x0
    1931:	0f 84 be 00 00 00    	je     19f5 <pfpad+0x170>
    1937:	48 8b 45 e8          	mov    rax,QWORD PTR [rbp-0x18]
    193b:	8b 40 04             	mov    eax,DWORD PTR [rax+0x4]
    193e:	83 e0 02             	and    eax,0x2
    1941:	85 c0                	test   eax,eax
    1943:	74 6a                	je     19af <pfpad+0x12a>
    1945:	48 8b 45 e8          	mov    rax,QWORD PTR [rbp-0x18]
    1949:	8b 40 30             	mov    eax,DWORD PTR [rax+0x30]
    194c:	48 63 d0             	movsxd rdx,eax
    194f:	48 8b 45 e8          	mov    rax,QWORD PTR [rbp-0x18]
    1953:	48 8b 48 28          	mov    rcx,QWORD PTR [rax+0x28]
    1957:	48 8b 45 f0          	mov    rax,QWORD PTR [rbp-0x10]
    195b:	48 89 ce             	mov    rsi,rcx
    195e:	48 89 c7             	mov    rdi,rax
    1961:	e8 56 24 00 00       	call   3dbc <ft_memcpy>
    1966:	8b 45 fc             	mov    eax,DWORD PTR [rbp-0x4]
    1969:	48 98                	cdqe   
    196b:	48 8b 55 e8          	mov    rdx,QWORD PTR [rbp-0x18]
    196f:	8b 52 04             	mov    edx,DWORD PTR [rdx+0x4]
    1972:	83 e2 10             	and    edx,0x10
    1975:	85 d2                	test   edx,edx
    1977:	74 13                	je     198c <pfpad+0x107>
    1979:	48 8b 55 e8          	mov    rdx,QWORD PTR [rbp-0x18]
    197d:	8b 52 0c             	mov    edx,DWORD PTR [rdx+0xc]
    1980:	83 fa ff             	cmp    edx,0xffffffff
    1983:	75 07                	jne    198c <pfpad+0x107>
    1985:	be 30 00 00 00       	mov    esi,0x30
    198a:	eb 05                	jmp    1991 <pfpad+0x10c>
    198c:	be 20 00 00 00       	mov    esi,0x20
    1991:	48 8b 55 e8          	mov    rdx,QWORD PTR [rbp-0x18]
    1995:	8b 52 30             	mov    edx,DWORD PTR [rdx+0x30]
    1998:	48 63 ca             	movsxd rcx,edx
    199b:	48 8b 55 f0          	mov    rdx,QWORD PTR [rbp-0x10]
    199f:	48 01 d1             	add    rcx,rdx
    19a2:	48 89 c2             	mov    rdx,rax
    19a5:	48 89 cf             	mov    rdi,rcx
    19a8:	e8 3d 22 00 00       	call   3bea <ft_memset>
    19ad:	eb 15                	jmp    19c4 <pfpad+0x13f>
    19af:	48 8b 55 f0          	mov    rdx,QWORD PTR [rbp-0x10]
    19b3:	8b 4d fc             	mov    ecx,DWORD PTR [rbp-0x4]
    19b6:	48 8b 45 e8          	mov    rax,QWORD PTR [rbp-0x18]
    19ba:	89 ce                	mov    esi,ecx
    19bc:	48 89 c7             	mov    rdi,rax
    19bf:	e8 8c fd ff ff       	call   1750 <pfpadleft>
    19c4:	48 8b 45 e8          	mov    rax,QWORD PTR [rbp-0x18]
    19c8:	48 8b 40 28          	mov    rax,QWORD PTR [rax+0x28]
    19cc:	48 89 c7             	mov    rdi,rax
    19cf:	e8 2c f4 ff ff       	call   e00 <free@plt>
    19d4:	48 8b 45 e8          	mov    rax,QWORD PTR [rbp-0x18]
    19d8:	8b 50 30             	mov    edx,DWORD PTR [rax+0x30]
    19db:	8b 45 fc             	mov    eax,DWORD PTR [rbp-0x4]
    19de:	01 c2                	add    edx,eax
    19e0:	48 8b 45 e8          	mov    rax,QWORD PTR [rbp-0x18]
    19e4:	89 50 30             	mov    DWORD PTR [rax+0x30],edx
    19e7:	48 8b 45 e8          	mov    rax,QWORD PTR [rbp-0x18]
    19eb:	48 8b 55 f0          	mov    rdx,QWORD PTR [rbp-0x10]
    19ef:	48 89 50 28          	mov    QWORD PTR [rax+0x28],rdx
    19f3:	eb 01                	jmp    19f6 <pfpad+0x171>
    19f5:	90                   	nop
    19f6:	c9                   	leave  
    19f7:	c3                   	ret    

00000000000019f8 <pfuse>:
    19f8:	55                   	push   rbp
    19f9:	48 89 e5             	mov    rbp,rsp
    19fc:	48 83 ec 10          	sub    rsp,0x10
    1a00:	48 89 7d f8          	mov    QWORD PTR [rbp-0x8],rdi
    1a04:	48 89 75 f0          	mov    QWORD PTR [rbp-0x10],rsi
    1a08:	48 8b 55 f0          	mov    rdx,QWORD PTR [rbp-0x10]
    1a0c:	48 8b 45 f8          	mov    rax,QWORD PTR [rbp-0x8]
    1a10:	48 89 d6             	mov    rsi,rdx
    1a13:	48 89 c7             	mov    rdi,rax
    1a16:	e8 c6 0e 00 00       	call   28e1 <pfcall>
    1a1b:	83 f8 ff             	cmp    eax,0xffffffff
    1a1e:	75 20                	jne    1a40 <pfuse+0x48>
    1a20:	48 8b 45 f8          	mov    rax,QWORD PTR [rbp-0x8]
    1a24:	48 83 c0 18          	add    rax,0x18
    1a28:	be 01 00 00 00       	mov    esi,0x1
    1a2d:	48 89 c7             	mov    rdi,rax
    1a30:	e8 49 26 00 00       	call   407e <ft_strndup>
    1a35:	48 89 c2             	mov    rdx,rax
    1a38:	48 8b 45 f8          	mov    rax,QWORD PTR [rbp-0x8]
    1a3c:	48 89 50 28          	mov    QWORD PTR [rax+0x28],rdx
    1a40:	48 8b 45 f8          	mov    rax,QWORD PTR [rbp-0x8]
    1a44:	8b 40 30             	mov    eax,DWORD PTR [rax+0x30]
    1a47:	83 f8 ff             	cmp    eax,0xffffffff
    1a4a:	75 2f                	jne    1a7b <pfuse+0x83>
    1a4c:	48 8b 45 f8          	mov    rax,QWORD PTR [rbp-0x8]
    1a50:	48 8b 40 28          	mov    rax,QWORD PTR [rax+0x28]
    1a54:	48 85 c0             	test   rax,rax
    1a57:	74 0a                	je     1a63 <pfuse+0x6b>
    1a59:	48 8b 45 f8          	mov    rax,QWORD PTR [rbp-0x8]
    1a5d:	48 8b 40 28          	mov    rax,QWORD PTR [rax+0x28]
    1a61:	eb 07                	jmp    1a6a <pfuse+0x72>
    1a63:	48 8d 05 54 31 00 00 	lea    rax,[rip+0x3154]        # 4bbe <_IO_stdin_used+0x8e>
    1a6a:	48 89 c7             	mov    rdi,rax
    1a6d:	e8 17 25 00 00       	call   3f89 <ft_strlen>
    1a72:	89 c2                	mov    edx,eax
    1a74:	48 8b 45 f8          	mov    rax,QWORD PTR [rbp-0x8]
    1a78:	89 50 30             	mov    DWORD PTR [rax+0x30],edx
    1a7b:	48 8b 45 f8          	mov    rax,QWORD PTR [rbp-0x8]
    1a7f:	8b 50 08             	mov    edx,DWORD PTR [rax+0x8]
    1a82:	48 8b 45 f8          	mov    rax,QWORD PTR [rbp-0x8]
    1a86:	8b 40 30             	mov    eax,DWORD PTR [rax+0x30]
    1a89:	39 c2                	cmp    edx,eax
    1a8b:	7f 5c                	jg     1ae9 <pfuse+0xf1>
    1a8d:	48 8b 45 f8          	mov    rax,QWORD PTR [rbp-0x8]
    1a91:	48 8b 40 20          	mov    rax,QWORD PTR [rax+0x20]
    1a95:	48 85 c0             	test   rax,rax
    1a98:	74 49                	je     1ae3 <pfuse+0xeb>
    1a9a:	48 8b 45 f8          	mov    rax,QWORD PTR [rbp-0x8]
    1a9e:	48 8d 48 28          	lea    rcx,[rax+0x28]
    1aa2:	48 8b 45 f8          	mov    rax,QWORD PTR [rbp-0x8]
    1aa6:	48 8b 40 20          	mov    rax,QWORD PTR [rax+0x20]
    1aaa:	ba 00 00 00 00       	mov    edx,0x0
    1aaf:	48 89 ce             	mov    rsi,rcx
    1ab2:	48 89 c7             	mov    rdi,rax
    1ab5:	e8 96 12 00 00       	call   2d50 <pfprepend>
    1aba:	48 8b 45 f8          	mov    rax,QWORD PTR [rbp-0x8]
    1abe:	48 8b 40 20          	mov    rax,QWORD PTR [rax+0x20]
    1ac2:	48 89 c7             	mov    rdi,rax
    1ac5:	e8 bf 24 00 00       	call   3f89 <ft_strlen>
    1aca:	48 89 c2             	mov    rdx,rax
    1acd:	48 8b 45 f8          	mov    rax,QWORD PTR [rbp-0x8]
    1ad1:	8b 40 30             	mov    eax,DWORD PTR [rax+0x30]
    1ad4:	89 c1                	mov    ecx,eax
    1ad6:	89 d0                	mov    eax,edx
    1ad8:	01 c8                	add    eax,ecx
    1ada:	89 c2                	mov    edx,eax
    1adc:	48 8b 45 f8          	mov    rax,QWORD PTR [rbp-0x8]
    1ae0:	89 50 30             	mov    DWORD PTR [rax+0x30],edx
    1ae3:	48 8b 45 f8          	mov    rax,QWORD PTR [rbp-0x8]
    1ae7:	eb 10                	jmp    1af9 <pfuse+0x101>
    1ae9:	48 8b 45 f8          	mov    rax,QWORD PTR [rbp-0x8]
    1aed:	48 89 c7             	mov    rdi,rax
    1af0:	e8 90 fd ff ff       	call   1885 <pfpad>
    1af5:	48 8b 45 f8          	mov    rax,QWORD PTR [rbp-0x8]
    1af9:	c9                   	leave  
    1afa:	c3                   	ret    

0000000000001afb <pflexer>:
    1afb:	55                   	push   rbp
    1afc:	48 89 e5             	mov    rbp,rsp
    1aff:	48 83 ec 20          	sub    rsp,0x20
    1b03:	48 89 7d f8          	mov    QWORD PTR [rbp-0x8],rdi
    1b07:	48 89 75 f0          	mov    QWORD PTR [rbp-0x10],rsi
    1b0b:	48 89 55 e8          	mov    QWORD PTR [rbp-0x18],rdx
    1b0f:	48 8b 45 f8          	mov    rax,QWORD PTR [rbp-0x8]
    1b13:	48 8b 00             	mov    rax,QWORD PTR [rax]
    1b16:	48 8d 50 01          	lea    rdx,[rax+0x1]
    1b1a:	48 8b 45 f8          	mov    rax,QWORD PTR [rbp-0x8]
    1b1e:	48 89 10             	mov    QWORD PTR [rax],rdx
    1b21:	48 8b 45 e8          	mov    rax,QWORD PTR [rbp-0x18]
    1b25:	48 c7 40 20 00 00 00 	mov    QWORD PTR [rax+0x20],0x0
    1b2c:	00 
    1b2d:	48 8b 45 e8          	mov    rax,QWORD PTR [rbp-0x18]
    1b31:	48 c7 40 28 00 00 00 	mov    QWORD PTR [rax+0x28],0x0
    1b38:	00 
    1b39:	48 8b 45 e8          	mov    rax,QWORD PTR [rbp-0x18]
    1b3d:	c7 40 30 ff ff ff ff 	mov    DWORD PTR [rax+0x30],0xffffffff
    1b44:	48 8b 55 f8          	mov    rdx,QWORD PTR [rbp-0x8]
    1b48:	48 8b 45 e8          	mov    rax,QWORD PTR [rbp-0x18]
    1b4c:	48 89 d6             	mov    rsi,rdx
    1b4f:	48 89 c7             	mov    rdi,rax
    1b52:	e8 73 00 00 00       	call   1bca <pflexparam>
    1b57:	48 8b 55 f8          	mov    rdx,QWORD PTR [rbp-0x8]
    1b5b:	48 8b 45 e8          	mov    rax,QWORD PTR [rbp-0x18]
    1b5f:	48 89 d6             	mov    rsi,rdx
    1b62:	48 89 c7             	mov    rdi,rax
    1b65:	e8 f7 00 00 00       	call   1c61 <pflexflags>
    1b6a:	48 8b 55 f0          	mov    rdx,QWORD PTR [rbp-0x10]
    1b6e:	48 8b 4d f8          	mov    rcx,QWORD PTR [rbp-0x8]
    1b72:	48 8b 45 e8          	mov    rax,QWORD PTR [rbp-0x18]
    1b76:	48 89 ce             	mov    rsi,rcx
    1b79:	48 89 c7             	mov    rdi,rax
    1b7c:	e8 e1 02 00 00       	call   1e62 <pflexwidth>
    1b81:	48 8b 55 f0          	mov    rdx,QWORD PTR [rbp-0x10]
    1b85:	48 8b 4d f8          	mov    rcx,QWORD PTR [rbp-0x8]
    1b89:	48 8b 45 e8          	mov    rax,QWORD PTR [rbp-0x18]
    1b8d:	48 89 ce             	mov    rsi,rcx
    1b90:	48 89 c7             	mov    rdi,rax
    1b93:	e8 5c 04 00 00       	call   1ff4 <pflexprecision>
    1b98:	48 8b 55 f8          	mov    rdx,QWORD PTR [rbp-0x8]
    1b9c:	48 8b 45 e8          	mov    rax,QWORD PTR [rbp-0x18]
    1ba0:	48 89 d6             	mov    rsi,rdx
    1ba3:	48 89 c7             	mov    rdi,rax
    1ba6:	e8 7b 05 00 00       	call   2126 <pflexlandt>
    1bab:	85 c0                	test   eax,eax
    1bad:	75 06                	jne    1bb5 <pflexer+0xba>
    1baf:	48 8b 45 e8          	mov    rax,QWORD PTR [rbp-0x18]
    1bb3:	eb 13                	jmp    1bc8 <pflexer+0xcd>
    1bb5:	48 8b 55 f0          	mov    rdx,QWORD PTR [rbp-0x10]
    1bb9:	48 8b 45 e8          	mov    rax,QWORD PTR [rbp-0x18]
    1bbd:	48 89 d6             	mov    rsi,rdx
    1bc0:	48 89 c7             	mov    rdi,rax
    1bc3:	e8 30 fe ff ff       	call   19f8 <pfuse>
    1bc8:	c9                   	leave  
    1bc9:	c3                   	ret    

0000000000001bca <pflexparam>:
    1bca:	55                   	push   rbp
    1bcb:	48 89 e5             	mov    rbp,rsp
    1bce:	48 83 ec 20          	sub    rsp,0x20
    1bd2:	48 89 7d e8          	mov    QWORD PTR [rbp-0x18],rdi
    1bd6:	48 89 75 e0          	mov    QWORD PTR [rbp-0x20],rsi
    1bda:	48 8b 45 e8          	mov    rax,QWORD PTR [rbp-0x18]
    1bde:	c7 00 ff ff ff ff    	mov    DWORD PTR [rax],0xffffffff
    1be4:	48 8b 45 e0          	mov    rax,QWORD PTR [rbp-0x20]
    1be8:	48 8b 00             	mov    rax,QWORD PTR [rax]
    1beb:	be 24 00 00 00       	mov    esi,0x24
    1bf0:	48 89 c7             	mov    rdi,rax
    1bf3:	e8 71 25 00 00       	call   4169 <ft_strchr>
    1bf8:	48 89 45 f8          	mov    QWORD PTR [rbp-0x8],rax
    1bfc:	48 83 7d f8 00       	cmp    QWORD PTR [rbp-0x8],0x0
    1c01:	74 41                	je     1c44 <pflexparam+0x7a>
    1c03:	48 8b 55 f8          	mov    rdx,QWORD PTR [rbp-0x8]
    1c07:	48 8b 45 e0          	mov    rax,QWORD PTR [rbp-0x20]
    1c0b:	48 8b 00             	mov    rax,QWORD PTR [rax]
    1c0e:	48 29 c2             	sub    rdx,rax
    1c11:	48 89 d0             	mov    rax,rdx
    1c14:	48 89 c2             	mov    rdx,rax
    1c17:	48 8b 45 e0          	mov    rax,QWORD PTR [rbp-0x20]
    1c1b:	48 8b 00             	mov    rax,QWORD PTR [rax]
    1c1e:	48 89 d6             	mov    rsi,rdx
    1c21:	48 89 c7             	mov    rdi,rax
    1c24:	e8 96 29 00 00       	call   45bf <ft_strisndigit>
    1c29:	85 c0                	test   eax,eax
    1c2b:	74 17                	je     1c44 <pflexparam+0x7a>
    1c2d:	48 8b 45 e0          	mov    rax,QWORD PTR [rbp-0x20]
    1c31:	48 8b 00             	mov    rax,QWORD PTR [rax]
    1c34:	48 89 c7             	mov    rdi,rax
    1c37:	e8 a1 25 00 00       	call   41dd <ft_atoi>
    1c3c:	89 c2                	mov    edx,eax
    1c3e:	48 8b 45 e8          	mov    rax,QWORD PTR [rbp-0x18]
    1c42:	89 10                	mov    DWORD PTR [rax],edx
    1c44:	48 8b 45 e8          	mov    rax,QWORD PTR [rbp-0x18]
    1c48:	8b 00                	mov    eax,DWORD PTR [rax]
    1c4a:	83 f8 ff             	cmp    eax,0xffffffff
    1c4d:	74 0f                	je     1c5e <pflexparam+0x94>
    1c4f:	48 8b 45 f8          	mov    rax,QWORD PTR [rbp-0x8]
    1c53:	48 8d 50 01          	lea    rdx,[rax+0x1]
    1c57:	48 8b 45 e0          	mov    rax,QWORD PTR [rbp-0x20]
    1c5b:	48 89 10             	mov    QWORD PTR [rax],rdx
    1c5e:	90                   	nop
    1c5f:	c9                   	leave  
    1c60:	c3                   	ret    

0000000000001c61 <pflexflags>:
    1c61:	55                   	push   rbp
    1c62:	48 89 e5             	mov    rbp,rsp
    1c65:	48 89 7d f8          	mov    QWORD PTR [rbp-0x8],rdi
    1c69:	48 89 75 f0          	mov    QWORD PTR [rbp-0x10],rsi
    1c6d:	48 8b 45 f8          	mov    rax,QWORD PTR [rbp-0x8]
    1c71:	c7 40 04 00 00 00 00 	mov    DWORD PTR [rax+0x4],0x0
    1c78:	e9 2a 01 00 00       	jmp    1da7 <pflexflags+0x146>
    1c7d:	48 8b 45 f8          	mov    rax,QWORD PTR [rbp-0x8]
    1c81:	8b 50 04             	mov    edx,DWORD PTR [rax+0x4]
    1c84:	48 8b 45 f0          	mov    rax,QWORD PTR [rbp-0x10]
    1c88:	48 8b 00             	mov    rax,QWORD PTR [rax]
    1c8b:	0f b6 00             	movzx  eax,BYTE PTR [rax]
    1c8e:	3c 23                	cmp    al,0x23
    1c90:	75 15                	jne    1ca7 <pflexflags+0x46>
    1c92:	48 8b 45 f8          	mov    rax,QWORD PTR [rbp-0x8]
    1c96:	8b 40 04             	mov    eax,DWORD PTR [rax+0x4]
    1c99:	83 e0 01             	and    eax,0x1
    1c9c:	85 c0                	test   eax,eax
    1c9e:	75 07                	jne    1ca7 <pflexflags+0x46>
    1ca0:	b8 01 00 00 00       	mov    eax,0x1
    1ca5:	eb 05                	jmp    1cac <pflexflags+0x4b>
    1ca7:	b8 00 00 00 00       	mov    eax,0x0
    1cac:	09 c2                	or     edx,eax
    1cae:	48 8b 45 f8          	mov    rax,QWORD PTR [rbp-0x8]
    1cb2:	89 50 04             	mov    DWORD PTR [rax+0x4],edx
    1cb5:	48 8b 45 f8          	mov    rax,QWORD PTR [rbp-0x8]
    1cb9:	8b 50 04             	mov    edx,DWORD PTR [rax+0x4]
    1cbc:	48 8b 45 f0          	mov    rax,QWORD PTR [rbp-0x10]
    1cc0:	48 8b 00             	mov    rax,QWORD PTR [rax]
    1cc3:	0f b6 00             	movzx  eax,BYTE PTR [rax]
    1cc6:	3c 2d                	cmp    al,0x2d
    1cc8:	75 15                	jne    1cdf <pflexflags+0x7e>
    1cca:	48 8b 45 f8          	mov    rax,QWORD PTR [rbp-0x8]
    1cce:	8b 40 04             	mov    eax,DWORD PTR [rax+0x4]
    1cd1:	83 e0 02             	and    eax,0x2
    1cd4:	85 c0                	test   eax,eax
    1cd6:	75 07                	jne    1cdf <pflexflags+0x7e>
    1cd8:	b8 02 00 00 00       	mov    eax,0x2
    1cdd:	eb 05                	jmp    1ce4 <pflexflags+0x83>
    1cdf:	b8 00 00 00 00       	mov    eax,0x0
    1ce4:	09 c2                	or     edx,eax
    1ce6:	48 8b 45 f8          	mov    rax,QWORD PTR [rbp-0x8]
    1cea:	89 50 04             	mov    DWORD PTR [rax+0x4],edx
    1ced:	48 8b 45 f8          	mov    rax,QWORD PTR [rbp-0x8]
    1cf1:	8b 50 04             	mov    edx,DWORD PTR [rax+0x4]
    1cf4:	48 8b 45 f0          	mov    rax,QWORD PTR [rbp-0x10]
    1cf8:	48 8b 00             	mov    rax,QWORD PTR [rax]
    1cfb:	0f b6 00             	movzx  eax,BYTE PTR [rax]
    1cfe:	3c 2b                	cmp    al,0x2b
    1d00:	75 15                	jne    1d17 <pflexflags+0xb6>
    1d02:	48 8b 45 f8          	mov    rax,QWORD PTR [rbp-0x8]
    1d06:	8b 40 04             	mov    eax,DWORD PTR [rax+0x4]
    1d09:	83 e0 04             	and    eax,0x4
    1d0c:	85 c0                	test   eax,eax
    1d0e:	75 07                	jne    1d17 <pflexflags+0xb6>
    1d10:	b8 04 00 00 00       	mov    eax,0x4
    1d15:	eb 05                	jmp    1d1c <pflexflags+0xbb>
    1d17:	b8 00 00 00 00       	mov    eax,0x0
    1d1c:	09 c2                	or     edx,eax
    1d1e:	48 8b 45 f8          	mov    rax,QWORD PTR [rbp-0x8]
    1d22:	89 50 04             	mov    DWORD PTR [rax+0x4],edx
    1d25:	48 8b 45 f8          	mov    rax,QWORD PTR [rbp-0x8]
    1d29:	8b 50 04             	mov    edx,DWORD PTR [rax+0x4]
    1d2c:	48 8b 45 f0          	mov    rax,QWORD PTR [rbp-0x10]
    1d30:	48 8b 00             	mov    rax,QWORD PTR [rax]
    1d33:	0f b6 00             	movzx  eax,BYTE PTR [rax]
    1d36:	3c 20                	cmp    al,0x20
    1d38:	75 15                	jne    1d4f <pflexflags+0xee>
    1d3a:	48 8b 45 f8          	mov    rax,QWORD PTR [rbp-0x8]
    1d3e:	8b 40 04             	mov    eax,DWORD PTR [rax+0x4]
    1d41:	83 e0 08             	and    eax,0x8
    1d44:	85 c0                	test   eax,eax
    1d46:	75 07                	jne    1d4f <pflexflags+0xee>
    1d48:	b8 08 00 00 00       	mov    eax,0x8
    1d4d:	eb 05                	jmp    1d54 <pflexflags+0xf3>
    1d4f:	b8 00 00 00 00       	mov    eax,0x0
    1d54:	09 c2                	or     edx,eax
    1d56:	48 8b 45 f8          	mov    rax,QWORD PTR [rbp-0x8]
    1d5a:	89 50 04             	mov    DWORD PTR [rax+0x4],edx
    1d5d:	48 8b 45 f8          	mov    rax,QWORD PTR [rbp-0x8]
    1d61:	8b 50 04             	mov    edx,DWORD PTR [rax+0x4]
    1d64:	48 8b 45 f0          	mov    rax,QWORD PTR [rbp-0x10]
    1d68:	48 8b 00             	mov    rax,QWORD PTR [rax]
    1d6b:	0f b6 00             	movzx  eax,BYTE PTR [rax]
    1d6e:	3c 30                	cmp    al,0x30
    1d70:	75 15                	jne    1d87 <pflexflags+0x126>
    1d72:	48 8b 45 f8          	mov    rax,QWORD PTR [rbp-0x8]
    1d76:	8b 40 04             	mov    eax,DWORD PTR [rax+0x4]
    1d79:	83 e0 10             	and    eax,0x10
    1d7c:	85 c0                	test   eax,eax
    1d7e:	75 07                	jne    1d87 <pflexflags+0x126>
    1d80:	b8 10 00 00 00       	mov    eax,0x10
    1d85:	eb 05                	jmp    1d8c <pflexflags+0x12b>
    1d87:	b8 00 00 00 00       	mov    eax,0x0
    1d8c:	09 c2                	or     edx,eax
    1d8e:	48 8b 45 f8          	mov    rax,QWORD PTR [rbp-0x8]
    1d92:	89 50 04             	mov    DWORD PTR [rax+0x4],edx
    1d95:	48 8b 45 f0          	mov    rax,QWORD PTR [rbp-0x10]
    1d99:	48 8b 00             	mov    rax,QWORD PTR [rax]
    1d9c:	48 8d 50 01          	lea    rdx,[rax+0x1]
    1da0:	48 8b 45 f0          	mov    rax,QWORD PTR [rbp-0x10]
    1da4:	48 89 10             	mov    QWORD PTR [rax],rdx
    1da7:	48 8b 45 f0          	mov    rax,QWORD PTR [rbp-0x10]
    1dab:	48 8b 00             	mov    rax,QWORD PTR [rax]
    1dae:	0f b6 00             	movzx  eax,BYTE PTR [rax]
    1db1:	3c 23                	cmp    al,0x23
    1db3:	0f 84 c4 fe ff ff    	je     1c7d <pflexflags+0x1c>
    1db9:	48 8b 45 f0          	mov    rax,QWORD PTR [rbp-0x10]
    1dbd:	48 8b 00             	mov    rax,QWORD PTR [rax]
    1dc0:	0f b6 00             	movzx  eax,BYTE PTR [rax]
    1dc3:	3c 2d                	cmp    al,0x2d
    1dc5:	0f 84 b2 fe ff ff    	je     1c7d <pflexflags+0x1c>
    1dcb:	48 8b 45 f0          	mov    rax,QWORD PTR [rbp-0x10]
    1dcf:	48 8b 00             	mov    rax,QWORD PTR [rax]
    1dd2:	0f b6 00             	movzx  eax,BYTE PTR [rax]
    1dd5:	3c 2b                	cmp    al,0x2b
    1dd7:	0f 84 a0 fe ff ff    	je     1c7d <pflexflags+0x1c>
    1ddd:	48 8b 45 f0          	mov    rax,QWORD PTR [rbp-0x10]
    1de1:	48 8b 00             	mov    rax,QWORD PTR [rax]
    1de4:	0f b6 00             	movzx  eax,BYTE PTR [rax]
    1de7:	3c 20                	cmp    al,0x20
    1de9:	0f 84 8e fe ff ff    	je     1c7d <pflexflags+0x1c>
    1def:	48 8b 45 f0          	mov    rax,QWORD PTR [rbp-0x10]
    1df3:	48 8b 00             	mov    rax,QWORD PTR [rax]
    1df6:	0f b6 00             	movzx  eax,BYTE PTR [rax]
    1df9:	3c 30                	cmp    al,0x30
    1dfb:	0f 84 7c fe ff ff    	je     1c7d <pflexflags+0x1c>
    1e01:	48 8b 45 f8          	mov    rax,QWORD PTR [rbp-0x8]
    1e05:	8b 40 04             	mov    eax,DWORD PTR [rax+0x4]
    1e08:	83 e0 04             	and    eax,0x4
    1e0b:	85 c0                	test   eax,eax
    1e0d:	74 21                	je     1e30 <pflexflags+0x1cf>
    1e0f:	48 8b 45 f8          	mov    rax,QWORD PTR [rbp-0x8]
    1e13:	8b 40 04             	mov    eax,DWORD PTR [rax+0x4]
    1e16:	83 e0 08             	and    eax,0x8
    1e19:	85 c0                	test   eax,eax
    1e1b:	74 13                	je     1e30 <pflexflags+0x1cf>
    1e1d:	48 8b 45 f8          	mov    rax,QWORD PTR [rbp-0x8]
    1e21:	8b 40 04             	mov    eax,DWORD PTR [rax+0x4]
    1e24:	83 f0 08             	xor    eax,0x8
    1e27:	89 c2                	mov    edx,eax
    1e29:	48 8b 45 f8          	mov    rax,QWORD PTR [rbp-0x8]
    1e2d:	89 50 04             	mov    DWORD PTR [rax+0x4],edx
    1e30:	48 8b 45 f8          	mov    rax,QWORD PTR [rbp-0x8]
    1e34:	8b 40 04             	mov    eax,DWORD PTR [rax+0x4]
    1e37:	83 e0 02             	and    eax,0x2
    1e3a:	85 c0                	test   eax,eax
    1e3c:	74 21                	je     1e5f <pflexflags+0x1fe>
    1e3e:	48 8b 45 f8          	mov    rax,QWORD PTR [rbp-0x8]
    1e42:	8b 40 04             	mov    eax,DWORD PTR [rax+0x4]
    1e45:	83 e0 10             	and    eax,0x10
    1e48:	85 c0                	test   eax,eax
    1e4a:	74 13                	je     1e5f <pflexflags+0x1fe>
    1e4c:	48 8b 45 f8          	mov    rax,QWORD PTR [rbp-0x8]
    1e50:	8b 40 04             	mov    eax,DWORD PTR [rax+0x4]
    1e53:	83 f0 10             	xor    eax,0x10
    1e56:	89 c2                	mov    edx,eax
    1e58:	48 8b 45 f8          	mov    rax,QWORD PTR [rbp-0x8]
    1e5c:	89 50 04             	mov    DWORD PTR [rax+0x4],edx
    1e5f:	90                   	nop
    1e60:	5d                   	pop    rbp
    1e61:	c3                   	ret    

0000000000001e62 <pflexwidth>:
    1e62:	55                   	push   rbp
    1e63:	48 89 e5             	mov    rbp,rsp
    1e66:	48 83 ec 30          	sub    rsp,0x30
    1e6a:	48 89 7d e8          	mov    QWORD PTR [rbp-0x18],rdi
    1e6e:	48 89 75 e0          	mov    QWORD PTR [rbp-0x20],rsi
    1e72:	48 89 55 d8          	mov    QWORD PTR [rbp-0x28],rdx
    1e76:	48 8b 45 e0          	mov    rax,QWORD PTR [rbp-0x20]
    1e7a:	48 8b 00             	mov    rax,QWORD PTR [rax]
    1e7d:	be 2a 00 00 00       	mov    esi,0x2a
    1e82:	48 89 c7             	mov    rdi,rax
    1e85:	e8 df 22 00 00       	call   4169 <ft_strchr>
    1e8a:	48 89 45 f8          	mov    QWORD PTR [rbp-0x8],rax
    1e8e:	48 83 7d f8 00       	cmp    QWORD PTR [rbp-0x8],0x0
    1e93:	0f 84 f6 00 00 00    	je     1f8f <pflexwidth+0x12d>
    1e99:	48 8b 55 f8          	mov    rdx,QWORD PTR [rbp-0x8]
    1e9d:	48 8b 45 e0          	mov    rax,QWORD PTR [rbp-0x20]
    1ea1:	48 8b 00             	mov    rax,QWORD PTR [rax]
    1ea4:	48 29 c2             	sub    rdx,rax
    1ea7:	48 89 d0             	mov    rax,rdx
    1eaa:	48 89 c2             	mov    rdx,rax
    1ead:	48 8b 45 e0          	mov    rax,QWORD PTR [rbp-0x20]
    1eb1:	48 8b 00             	mov    rax,QWORD PTR [rax]
    1eb4:	48 89 d6             	mov    rsi,rdx
    1eb7:	48 89 c7             	mov    rdi,rax
    1eba:	e8 00 27 00 00       	call   45bf <ft_strisndigit>
    1ebf:	85 c0                	test   eax,eax
    1ec1:	0f 84 c8 00 00 00    	je     1f8f <pflexwidth+0x12d>
    1ec7:	48 8b 45 e0          	mov    rax,QWORD PTR [rbp-0x20]
    1ecb:	48 8b 55 f8          	mov    rdx,QWORD PTR [rbp-0x8]
    1ecf:	48 89 10             	mov    QWORD PTR [rax],rdx
    1ed2:	48 8b 45 d8          	mov    rax,QWORD PTR [rbp-0x28]
    1ed6:	8b 00                	mov    eax,DWORD PTR [rax]
    1ed8:	83 f8 2f             	cmp    eax,0x2f
    1edb:	77 24                	ja     1f01 <pflexwidth+0x9f>
    1edd:	48 8b 45 d8          	mov    rax,QWORD PTR [rbp-0x28]
    1ee1:	48 8b 50 10          	mov    rdx,QWORD PTR [rax+0x10]
    1ee5:	48 8b 45 d8          	mov    rax,QWORD PTR [rbp-0x28]
    1ee9:	8b 00                	mov    eax,DWORD PTR [rax]
    1eeb:	89 c0                	mov    eax,eax
    1eed:	48 01 d0             	add    rax,rdx
    1ef0:	48 8b 55 d8          	mov    rdx,QWORD PTR [rbp-0x28]
    1ef4:	8b 12                	mov    edx,DWORD PTR [rdx]
    1ef6:	8d 4a 08             	lea    ecx,[rdx+0x8]
    1ef9:	48 8b 55 d8          	mov    rdx,QWORD PTR [rbp-0x28]
    1efd:	89 0a                	mov    DWORD PTR [rdx],ecx
    1eff:	eb 14                	jmp    1f15 <pflexwidth+0xb3>
    1f01:	48 8b 45 d8          	mov    rax,QWORD PTR [rbp-0x28]
    1f05:	48 8b 40 08          	mov    rax,QWORD PTR [rax+0x8]
    1f09:	48 8d 48 08          	lea    rcx,[rax+0x8]
    1f0d:	48 8b 55 d8          	mov    rdx,QWORD PTR [rbp-0x28]
    1f11:	48 89 4a 08          	mov    QWORD PTR [rdx+0x8],rcx
    1f15:	8b 10                	mov    edx,DWORD PTR [rax]
    1f17:	48 8b 45 e8          	mov    rax,QWORD PTR [rbp-0x18]
    1f1b:	89 50 08             	mov    DWORD PTR [rax+0x8],edx
    1f1e:	48 8b 45 e8          	mov    rax,QWORD PTR [rbp-0x18]
    1f22:	8b 40 08             	mov    eax,DWORD PTR [rax+0x8]
    1f25:	85 c0                	test   eax,eax
    1f27:	79 3c                	jns    1f65 <pflexwidth+0x103>
    1f29:	48 8b 45 e8          	mov    rax,QWORD PTR [rbp-0x18]
    1f2d:	8b 50 04             	mov    edx,DWORD PTR [rax+0x4]
    1f30:	48 8b 45 e8          	mov    rax,QWORD PTR [rbp-0x18]
    1f34:	8b 40 04             	mov    eax,DWORD PTR [rax+0x4]
    1f37:	83 e0 02             	and    eax,0x2
    1f3a:	85 c0                	test   eax,eax
    1f3c:	75 07                	jne    1f45 <pflexwidth+0xe3>
    1f3e:	b8 02 00 00 00       	mov    eax,0x2
    1f43:	eb 05                	jmp    1f4a <pflexwidth+0xe8>
    1f45:	b8 00 00 00 00       	mov    eax,0x0
    1f4a:	09 c2                	or     edx,eax
    1f4c:	48 8b 45 e8          	mov    rax,QWORD PTR [rbp-0x18]
    1f50:	89 50 04             	mov    DWORD PTR [rax+0x4],edx
    1f53:	48 8b 45 e8          	mov    rax,QWORD PTR [rbp-0x18]
    1f57:	8b 40 08             	mov    eax,DWORD PTR [rax+0x8]
    1f5a:	f7 d8                	neg    eax
    1f5c:	89 c2                	mov    edx,eax
    1f5e:	48 8b 45 e8          	mov    rax,QWORD PTR [rbp-0x18]
    1f62:	89 50 08             	mov    DWORD PTR [rax+0x8],edx
    1f65:	48 8b 45 e0          	mov    rax,QWORD PTR [rbp-0x20]
    1f69:	48 8b 00             	mov    rax,QWORD PTR [rax]
    1f6c:	48 8d 50 01          	lea    rdx,[rax+0x1]
    1f70:	48 8b 45 e0          	mov    rax,QWORD PTR [rbp-0x20]
    1f74:	48 89 10             	mov    QWORD PTR [rax],rdx
    1f77:	48 8b 45 e0          	mov    rax,QWORD PTR [rbp-0x20]
    1f7b:	48 8b 00             	mov    rax,QWORD PTR [rax]
    1f7e:	0f b6 00             	movzx  eax,BYTE PTR [rax]
    1f81:	0f be c0             	movsx  eax,al
    1f84:	89 c7                	mov    edi,eax
    1f86:	e8 10 22 00 00       	call   419b <ft_isdigit>
    1f8b:	85 c0                	test   eax,eax
    1f8d:	74 62                	je     1ff1 <pflexwidth+0x18f>
    1f8f:	48 8b 45 e0          	mov    rax,QWORD PTR [rbp-0x20]
    1f93:	48 8b 00             	mov    rax,QWORD PTR [rax]
    1f96:	48 89 45 f8          	mov    QWORD PTR [rbp-0x8],rax
    1f9a:	eb 12                	jmp    1fae <pflexwidth+0x14c>
    1f9c:	48 8b 45 e0          	mov    rax,QWORD PTR [rbp-0x20]
    1fa0:	48 8b 00             	mov    rax,QWORD PTR [rax]
    1fa3:	48 8d 50 01          	lea    rdx,[rax+0x1]
    1fa7:	48 8b 45 e0          	mov    rax,QWORD PTR [rbp-0x20]
    1fab:	48 89 10             	mov    QWORD PTR [rax],rdx
    1fae:	48 8b 45 e0          	mov    rax,QWORD PTR [rbp-0x20]
    1fb2:	48 8b 00             	mov    rax,QWORD PTR [rax]
    1fb5:	0f b6 00             	movzx  eax,BYTE PTR [rax]
    1fb8:	0f be c0             	movsx  eax,al
    1fbb:	89 c7                	mov    edi,eax
    1fbd:	e8 d9 21 00 00       	call   419b <ft_isdigit>
    1fc2:	85 c0                	test   eax,eax
    1fc4:	75 d6                	jne    1f9c <pflexwidth+0x13a>
    1fc6:	48 8b 45 e0          	mov    rax,QWORD PTR [rbp-0x20]
    1fca:	48 8b 00             	mov    rax,QWORD PTR [rax]
    1fcd:	48 3b 45 f8          	cmp    rax,QWORD PTR [rbp-0x8]
    1fd1:	74 10                	je     1fe3 <pflexwidth+0x181>
    1fd3:	48 8b 45 f8          	mov    rax,QWORD PTR [rbp-0x8]
    1fd7:	48 89 c7             	mov    rdi,rax
    1fda:	e8 fe 21 00 00       	call   41dd <ft_atoi>
    1fdf:	89 c2                	mov    edx,eax
    1fe1:	eb 05                	jmp    1fe8 <pflexwidth+0x186>
    1fe3:	ba ff ff ff ff       	mov    edx,0xffffffff
    1fe8:	48 8b 45 e8          	mov    rax,QWORD PTR [rbp-0x18]
    1fec:	89 50 08             	mov    DWORD PTR [rax+0x8],edx
    1fef:	eb 01                	jmp    1ff2 <pflexwidth+0x190>
    1ff1:	90                   	nop
    1ff2:	c9                   	leave  
    1ff3:	c3                   	ret    

0000000000001ff4 <pflexprecision>:
    1ff4:	55                   	push   rbp
    1ff5:	48 89 e5             	mov    rbp,rsp
    1ff8:	48 83 ec 30          	sub    rsp,0x30
    1ffc:	48 89 7d e8          	mov    QWORD PTR [rbp-0x18],rdi
    2000:	48 89 75 e0          	mov    QWORD PTR [rbp-0x20],rsi
    2004:	48 89 55 d8          	mov    QWORD PTR [rbp-0x28],rdx
    2008:	48 8b 45 e8          	mov    rax,QWORD PTR [rbp-0x18]
    200c:	c7 40 0c ff ff ff ff 	mov    DWORD PTR [rax+0xc],0xffffffff
    2013:	48 8b 45 e0          	mov    rax,QWORD PTR [rbp-0x20]
    2017:	48 8b 00             	mov    rax,QWORD PTR [rax]
    201a:	0f b6 00             	movzx  eax,BYTE PTR [rax]
    201d:	3c 2e                	cmp    al,0x2e
    201f:	0f 85 fe 00 00 00    	jne    2123 <pflexprecision+0x12f>
    2025:	48 8b 45 e0          	mov    rax,QWORD PTR [rbp-0x20]
    2029:	48 8b 00             	mov    rax,QWORD PTR [rax]
    202c:	48 8d 50 01          	lea    rdx,[rax+0x1]
    2030:	48 8b 45 e0          	mov    rax,QWORD PTR [rbp-0x20]
    2034:	48 89 10             	mov    QWORD PTR [rax],rdx
    2037:	48 8b 45 e0          	mov    rax,QWORD PTR [rbp-0x20]
    203b:	48 8b 00             	mov    rax,QWORD PTR [rax]
    203e:	0f b6 00             	movzx  eax,BYTE PTR [rax]
    2041:	3c 2a                	cmp    al,0x2a
    2043:	75 76                	jne    20bb <pflexprecision+0xc7>
    2045:	48 8b 45 d8          	mov    rax,QWORD PTR [rbp-0x28]
    2049:	8b 00                	mov    eax,DWORD PTR [rax]
    204b:	83 f8 2f             	cmp    eax,0x2f
    204e:	77 24                	ja     2074 <pflexprecision+0x80>
    2050:	48 8b 45 d8          	mov    rax,QWORD PTR [rbp-0x28]
    2054:	48 8b 50 10          	mov    rdx,QWORD PTR [rax+0x10]
    2058:	48 8b 45 d8          	mov    rax,QWORD PTR [rbp-0x28]
    205c:	8b 00                	mov    eax,DWORD PTR [rax]
    205e:	89 c0                	mov    eax,eax
    2060:	48 01 d0             	add    rax,rdx
    2063:	48 8b 55 d8          	mov    rdx,QWORD PTR [rbp-0x28]
    2067:	8b 12                	mov    edx,DWORD PTR [rdx]
    2069:	8d 4a 08             	lea    ecx,[rdx+0x8]
    206c:	48 8b 55 d8          	mov    rdx,QWORD PTR [rbp-0x28]
    2070:	89 0a                	mov    DWORD PTR [rdx],ecx
    2072:	eb 14                	jmp    2088 <pflexprecision+0x94>
    2074:	48 8b 45 d8          	mov    rax,QWORD PTR [rbp-0x28]
    2078:	48 8b 40 08          	mov    rax,QWORD PTR [rax+0x8]
    207c:	48 8d 48 08          	lea    rcx,[rax+0x8]
    2080:	48 8b 55 d8          	mov    rdx,QWORD PTR [rbp-0x28]
    2084:	48 89 4a 08          	mov    QWORD PTR [rdx+0x8],rcx
    2088:	8b 10                	mov    edx,DWORD PTR [rax]
    208a:	48 8b 45 e8          	mov    rax,QWORD PTR [rbp-0x18]
    208e:	89 50 0c             	mov    DWORD PTR [rax+0xc],edx
    2091:	48 8b 45 e8          	mov    rax,QWORD PTR [rbp-0x18]
    2095:	8b 40 0c             	mov    eax,DWORD PTR [rax+0xc]
    2098:	85 c0                	test   eax,eax
    209a:	79 0b                	jns    20a7 <pflexprecision+0xb3>
    209c:	48 8b 45 e8          	mov    rax,QWORD PTR [rbp-0x18]
    20a0:	c7 40 0c ff ff ff ff 	mov    DWORD PTR [rax+0xc],0xffffffff
    20a7:	48 8b 45 e0          	mov    rax,QWORD PTR [rbp-0x20]
    20ab:	48 8b 00             	mov    rax,QWORD PTR [rax]
    20ae:	48 8d 50 01          	lea    rdx,[rax+0x1]
    20b2:	48 8b 45 e0          	mov    rax,QWORD PTR [rbp-0x20]
    20b6:	48 89 10             	mov    QWORD PTR [rax],rdx
    20b9:	eb 69                	jmp    2124 <pflexprecision+0x130>
    20bb:	48 8b 45 e0          	mov    rax,QWORD PTR [rbp-0x20]
    20bf:	48 8b 00             	mov    rax,QWORD PTR [rax]
    20c2:	48 89 45 f8          	mov    QWORD PTR [rbp-0x8],rax
    20c6:	eb 12                	jmp    20da <pflexprecision+0xe6>
    20c8:	48 8b 45 e0          	mov    rax,QWORD PTR [rbp-0x20]
    20cc:	48 8b 00             	mov    rax,QWORD PTR [rax]
    20cf:	48 8d 50 01          	lea    rdx,[rax+0x1]
    20d3:	48 8b 45 e0          	mov    rax,QWORD PTR [rbp-0x20]
    20d7:	48 89 10             	mov    QWORD PTR [rax],rdx
    20da:	48 8b 45 e0          	mov    rax,QWORD PTR [rbp-0x20]
    20de:	48 8b 00             	mov    rax,QWORD PTR [rax]
    20e1:	0f b6 00             	movzx  eax,BYTE PTR [rax]
    20e4:	0f be c0             	movsx  eax,al
    20e7:	89 c7                	mov    edi,eax
    20e9:	e8 ad 20 00 00       	call   419b <ft_isdigit>
    20ee:	85 c0                	test   eax,eax
    20f0:	75 d6                	jne    20c8 <pflexprecision+0xd4>
    20f2:	48 8b 45 e0          	mov    rax,QWORD PTR [rbp-0x20]
    20f6:	48 8b 00             	mov    rax,QWORD PTR [rax]
    20f9:	48 3b 45 f8          	cmp    rax,QWORD PTR [rbp-0x8]
    20fd:	74 17                	je     2116 <pflexprecision+0x122>
    20ff:	48 8b 45 f8          	mov    rax,QWORD PTR [rbp-0x8]
    2103:	48 89 c7             	mov    rdi,rax
    2106:	e8 d2 20 00 00       	call   41dd <ft_atoi>
    210b:	89 c2                	mov    edx,eax
    210d:	48 8b 45 e8          	mov    rax,QWORD PTR [rbp-0x18]
    2111:	89 50 0c             	mov    DWORD PTR [rax+0xc],edx
    2114:	eb 0e                	jmp    2124 <pflexprecision+0x130>
    2116:	48 8b 45 e8          	mov    rax,QWORD PTR [rbp-0x18]
    211a:	c7 40 0c 00 00 00 00 	mov    DWORD PTR [rax+0xc],0x0
    2121:	eb 01                	jmp    2124 <pflexprecision+0x130>
    2123:	90                   	nop
    2124:	c9                   	leave  
    2125:	c3                   	ret    

0000000000002126 <pflexlandt>:
    2126:	55                   	push   rbp
    2127:	48 89 e5             	mov    rbp,rsp
    212a:	48 83 ec 20          	sub    rsp,0x20
    212e:	48 89 7d e8          	mov    QWORD PTR [rbp-0x18],rdi
    2132:	48 89 75 e0          	mov    QWORD PTR [rbp-0x20],rsi
    2136:	48 8b 45 e0          	mov    rax,QWORD PTR [rbp-0x20]
    213a:	48 8b 00             	mov    rax,QWORD PTR [rax]
    213d:	48 89 45 f8          	mov    QWORD PTR [rbp-0x8],rax
    2141:	eb 42                	jmp    2185 <pflexlandt+0x5f>
    2143:	48 8b 45 e0          	mov    rax,QWORD PTR [rbp-0x20]
    2147:	48 8b 00             	mov    rax,QWORD PTR [rax]
    214a:	0f b6 00             	movzx  eax,BYTE PTR [rax]
    214d:	84 c0                	test   al,al
    214f:	75 0a                	jne    215b <pflexlandt+0x35>
    2151:	b8 00 00 00 00       	mov    eax,0x0
    2156:	e9 0b 01 00 00       	jmp    2266 <pflexlandt+0x140>
    215b:	48 8b 45 e0          	mov    rax,QWORD PTR [rbp-0x20]
    215f:	48 8b 00             	mov    rax,QWORD PTR [rax]
    2162:	0f b6 00             	movzx  eax,BYTE PTR [rax]
    2165:	0f be c0             	movsx  eax,al
    2168:	89 c7                	mov    edi,eax
    216a:	e8 74 0a 00 00       	call   2be3 <pfisvalid>
    216f:	85 c0                	test   eax,eax
    2171:	75 70                	jne    21e3 <pflexlandt+0xbd>
    2173:	48 8b 45 e0          	mov    rax,QWORD PTR [rbp-0x20]
    2177:	48 8b 00             	mov    rax,QWORD PTR [rax]
    217a:	48 8d 50 01          	lea    rdx,[rax+0x1]
    217e:	48 8b 45 e0          	mov    rax,QWORD PTR [rbp-0x20]
    2182:	48 89 10             	mov    QWORD PTR [rax],rdx
    2185:	48 8b 45 e0          	mov    rax,QWORD PTR [rbp-0x20]
    2189:	48 8b 00             	mov    rax,QWORD PTR [rax]
    218c:	0f b6 00             	movzx  eax,BYTE PTR [rax]
    218f:	3c 6c                	cmp    al,0x6c
    2191:	74 b0                	je     2143 <pflexlandt+0x1d>
    2193:	48 8b 45 e0          	mov    rax,QWORD PTR [rbp-0x20]
    2197:	48 8b 00             	mov    rax,QWORD PTR [rax]
    219a:	0f b6 00             	movzx  eax,BYTE PTR [rax]
    219d:	3c 68                	cmp    al,0x68
    219f:	74 a2                	je     2143 <pflexlandt+0x1d>
    21a1:	48 8b 45 e0          	mov    rax,QWORD PTR [rbp-0x20]
    21a5:	48 8b 00             	mov    rax,QWORD PTR [rax]
    21a8:	0f b6 00             	movzx  eax,BYTE PTR [rax]
    21ab:	3c 4c                	cmp    al,0x4c
    21ad:	74 94                	je     2143 <pflexlandt+0x1d>
    21af:	48 8b 45 e0          	mov    rax,QWORD PTR [rbp-0x20]
    21b3:	48 8b 00             	mov    rax,QWORD PTR [rax]
    21b6:	0f b6 00             	movzx  eax,BYTE PTR [rax]
    21b9:	3c 6a                	cmp    al,0x6a
    21bb:	74 86                	je     2143 <pflexlandt+0x1d>
    21bd:	48 8b 45 e0          	mov    rax,QWORD PTR [rbp-0x20]
    21c1:	48 8b 00             	mov    rax,QWORD PTR [rax]
    21c4:	0f b6 00             	movzx  eax,BYTE PTR [rax]
    21c7:	3c 7a                	cmp    al,0x7a
    21c9:	0f 84 74 ff ff ff    	je     2143 <pflexlandt+0x1d>
    21cf:	48 8b 45 e0          	mov    rax,QWORD PTR [rbp-0x20]
    21d3:	48 8b 00             	mov    rax,QWORD PTR [rax]
    21d6:	0f b6 00             	movzx  eax,BYTE PTR [rax]
    21d9:	3c 74                	cmp    al,0x74
    21db:	0f 84 62 ff ff ff    	je     2143 <pflexlandt+0x1d>
    21e1:	eb 01                	jmp    21e4 <pflexlandt+0xbe>
    21e3:	90                   	nop
    21e4:	48 8b 45 e0          	mov    rax,QWORD PTR [rbp-0x20]
    21e8:	48 8b 00             	mov    rax,QWORD PTR [rax]
    21eb:	0f b6 00             	movzx  eax,BYTE PTR [rax]
    21ee:	84 c0                	test   al,al
    21f0:	75 07                	jne    21f9 <pflexlandt+0xd3>
    21f2:	b8 00 00 00 00       	mov    eax,0x0
    21f7:	eb 6d                	jmp    2266 <pflexlandt+0x140>
    21f9:	48 8b 45 e0          	mov    rax,QWORD PTR [rbp-0x20]
    21fd:	48 8b 00             	mov    rax,QWORD PTR [rax]
    2200:	0f b6 10             	movzx  edx,BYTE PTR [rax]
    2203:	48 8b 45 e8          	mov    rax,QWORD PTR [rbp-0x18]
    2207:	88 50 18             	mov    BYTE PTR [rax+0x18],dl
    220a:	48 8b 45 e0          	mov    rax,QWORD PTR [rbp-0x20]
    220e:	48 8b 00             	mov    rax,QWORD PTR [rax]
    2211:	48 3b 45 f8          	cmp    rax,QWORD PTR [rbp-0x8]
    2215:	74 2b                	je     2242 <pflexlandt+0x11c>
    2217:	48 8b 45 e0          	mov    rax,QWORD PTR [rbp-0x20]
    221b:	48 8b 00             	mov    rax,QWORD PTR [rax]
    221e:	48 89 c2             	mov    rdx,rax
    2221:	48 8b 45 f8          	mov    rax,QWORD PTR [rbp-0x8]
    2225:	48 29 c2             	sub    rdx,rax
    2228:	48 89 d0             	mov    rax,rdx
    222b:	48 89 c2             	mov    rdx,rax
    222e:	48 8b 45 f8          	mov    rax,QWORD PTR [rbp-0x8]
    2232:	48 89 d6             	mov    rsi,rdx
    2235:	48 89 c7             	mov    rdi,rax
    2238:	e8 41 1e 00 00       	call   407e <ft_strndup>
    223d:	48 89 c2             	mov    rdx,rax
    2240:	eb 05                	jmp    2247 <pflexlandt+0x121>
    2242:	ba 00 00 00 00       	mov    edx,0x0
    2247:	48 8b 45 e8          	mov    rax,QWORD PTR [rbp-0x18]
    224b:	48 89 50 10          	mov    QWORD PTR [rax+0x10],rdx
    224f:	48 8b 45 e0          	mov    rax,QWORD PTR [rbp-0x20]
    2253:	48 8b 00             	mov    rax,QWORD PTR [rax]
    2256:	48 8d 50 01          	lea    rdx,[rax+0x1]
    225a:	48 8b 45 e0          	mov    rax,QWORD PTR [rbp-0x20]
    225e:	48 89 10             	mov    QWORD PTR [rax],rdx
    2261:	b8 01 00 00 00       	mov    eax,0x1
    2266:	c9                   	leave  
    2267:	c3                   	ret    

0000000000002268 <pfpopunsigned>:
    2268:	55                   	push   rbp
    2269:	48 89 e5             	mov    rbp,rsp
    226c:	48 89 7d f8          	mov    QWORD PTR [rbp-0x8],rdi
    2270:	89 75 f4             	mov    DWORD PTR [rbp-0xc],esi
    2273:	48 89 55 e8          	mov    QWORD PTR [rbp-0x18],rdx
    2277:	83 7d f4 01          	cmp    DWORD PTR [rbp-0xc],0x1
    227b:	75 55                	jne    22d2 <pfpopunsigned+0x6a>
    227d:	48 8b 45 e8          	mov    rax,QWORD PTR [rbp-0x18]
    2281:	8b 00                	mov    eax,DWORD PTR [rax]
    2283:	83 f8 2f             	cmp    eax,0x2f
    2286:	77 24                	ja     22ac <pfpopunsigned+0x44>
    2288:	48 8b 45 e8          	mov    rax,QWORD PTR [rbp-0x18]
    228c:	48 8b 50 10          	mov    rdx,QWORD PTR [rax+0x10]
    2290:	48 8b 45 e8          	mov    rax,QWORD PTR [rbp-0x18]
    2294:	8b 00                	mov    eax,DWORD PTR [rax]
    2296:	89 c0                	mov    eax,eax
    2298:	48 01 d0             	add    rax,rdx
    229b:	48 8b 55 e8          	mov    rdx,QWORD PTR [rbp-0x18]
    229f:	8b 12                	mov    edx,DWORD PTR [rdx]
    22a1:	8d 4a 08             	lea    ecx,[rdx+0x8]
    22a4:	48 8b 55 e8          	mov    rdx,QWORD PTR [rbp-0x18]
    22a8:	89 0a                	mov    DWORD PTR [rdx],ecx
    22aa:	eb 14                	jmp    22c0 <pfpopunsigned+0x58>
    22ac:	48 8b 45 e8          	mov    rax,QWORD PTR [rbp-0x18]
    22b0:	48 8b 40 08          	mov    rax,QWORD PTR [rax+0x8]
    22b4:	48 8d 48 08          	lea    rcx,[rax+0x8]
    22b8:	48 8b 55 e8          	mov    rdx,QWORD PTR [rbp-0x18]
    22bc:	48 89 4a 08          	mov    QWORD PTR [rdx+0x8],rcx
    22c0:	48 8b 00             	mov    rax,QWORD PTR [rax]
    22c3:	48 89 c2             	mov    rdx,rax
    22c6:	48 8b 45 f8          	mov    rax,QWORD PTR [rbp-0x8]
    22ca:	48 89 10             	mov    QWORD PTR [rax],rdx
    22cd:	e9 cd 02 00 00       	jmp    259f <pfpopunsigned+0x337>
    22d2:	83 7d f4 03          	cmp    DWORD PTR [rbp-0xc],0x3
    22d6:	75 54                	jne    232c <pfpopunsigned+0xc4>
    22d8:	48 8b 45 e8          	mov    rax,QWORD PTR [rbp-0x18]
    22dc:	8b 00                	mov    eax,DWORD PTR [rax]
    22de:	83 f8 2f             	cmp    eax,0x2f
    22e1:	77 24                	ja     2307 <pfpopunsigned+0x9f>
    22e3:	48 8b 45 e8          	mov    rax,QWORD PTR [rbp-0x18]
    22e7:	48 8b 50 10          	mov    rdx,QWORD PTR [rax+0x10]
    22eb:	48 8b 45 e8          	mov    rax,QWORD PTR [rbp-0x18]
    22ef:	8b 00                	mov    eax,DWORD PTR [rax]
    22f1:	89 c0                	mov    eax,eax
    22f3:	48 01 d0             	add    rax,rdx
    22f6:	48 8b 55 e8          	mov    rdx,QWORD PTR [rbp-0x18]
    22fa:	8b 12                	mov    edx,DWORD PTR [rdx]
    22fc:	8d 4a 08             	lea    ecx,[rdx+0x8]
    22ff:	48 8b 55 e8          	mov    rdx,QWORD PTR [rbp-0x18]
    2303:	89 0a                	mov    DWORD PTR [rdx],ecx
    2305:	eb 14                	jmp    231b <pfpopunsigned+0xb3>
    2307:	48 8b 45 e8          	mov    rax,QWORD PTR [rbp-0x18]
    230b:	48 8b 40 08          	mov    rax,QWORD PTR [rax+0x8]
    230f:	48 8d 48 08          	lea    rcx,[rax+0x8]
    2313:	48 8b 55 e8          	mov    rdx,QWORD PTR [rbp-0x18]
    2317:	48 89 4a 08          	mov    QWORD PTR [rdx+0x8],rcx
    231b:	8b 00                	mov    eax,DWORD PTR [rax]
    231d:	0f b6 d0             	movzx  edx,al
    2320:	48 8b 45 f8          	mov    rax,QWORD PTR [rbp-0x8]
    2324:	48 89 10             	mov    QWORD PTR [rax],rdx
    2327:	e9 73 02 00 00       	jmp    259f <pfpopunsigned+0x337>
    232c:	83 7d f4 05          	cmp    DWORD PTR [rbp-0xc],0x5
    2330:	75 54                	jne    2386 <pfpopunsigned+0x11e>
    2332:	48 8b 45 e8          	mov    rax,QWORD PTR [rbp-0x18]
    2336:	8b 00                	mov    eax,DWORD PTR [rax]
    2338:	83 f8 2f             	cmp    eax,0x2f
    233b:	77 24                	ja     2361 <pfpopunsigned+0xf9>
    233d:	48 8b 45 e8          	mov    rax,QWORD PTR [rbp-0x18]
    2341:	48 8b 50 10          	mov    rdx,QWORD PTR [rax+0x10]
    2345:	48 8b 45 e8          	mov    rax,QWORD PTR [rbp-0x18]
    2349:	8b 00                	mov    eax,DWORD PTR [rax]
    234b:	89 c0                	mov    eax,eax
    234d:	48 01 d0             	add    rax,rdx
    2350:	48 8b 55 e8          	mov    rdx,QWORD PTR [rbp-0x18]
    2354:	8b 12                	mov    edx,DWORD PTR [rdx]
    2356:	8d 4a 08             	lea    ecx,[rdx+0x8]
    2359:	48 8b 55 e8          	mov    rdx,QWORD PTR [rbp-0x18]
    235d:	89 0a                	mov    DWORD PTR [rdx],ecx
    235f:	eb 14                	jmp    2375 <pfpopunsigned+0x10d>
    2361:	48 8b 45 e8          	mov    rax,QWORD PTR [rbp-0x18]
    2365:	48 8b 40 08          	mov    rax,QWORD PTR [rax+0x8]
    2369:	48 8d 48 08          	lea    rcx,[rax+0x8]
    236d:	48 8b 55 e8          	mov    rdx,QWORD PTR [rbp-0x18]
    2371:	48 89 4a 08          	mov    QWORD PTR [rdx+0x8],rcx
    2375:	8b 00                	mov    eax,DWORD PTR [rax]
    2377:	0f b7 d0             	movzx  edx,ax
    237a:	48 8b 45 f8          	mov    rax,QWORD PTR [rbp-0x8]
    237e:	48 89 10             	mov    QWORD PTR [rax],rdx
    2381:	e9 19 02 00 00       	jmp    259f <pfpopunsigned+0x337>
    2386:	83 7d f4 07          	cmp    DWORD PTR [rbp-0xc],0x7
    238a:	75 53                	jne    23df <pfpopunsigned+0x177>
    238c:	48 8b 45 e8          	mov    rax,QWORD PTR [rbp-0x18]
    2390:	8b 00                	mov    eax,DWORD PTR [rax]
    2392:	83 f8 2f             	cmp    eax,0x2f
    2395:	77 24                	ja     23bb <pfpopunsigned+0x153>
    2397:	48 8b 45 e8          	mov    rax,QWORD PTR [rbp-0x18]
    239b:	48 8b 50 10          	mov    rdx,QWORD PTR [rax+0x10]
    239f:	48 8b 45 e8          	mov    rax,QWORD PTR [rbp-0x18]
    23a3:	8b 00                	mov    eax,DWORD PTR [rax]
    23a5:	89 c0                	mov    eax,eax
    23a7:	48 01 d0             	add    rax,rdx
    23aa:	48 8b 55 e8          	mov    rdx,QWORD PTR [rbp-0x18]
    23ae:	8b 12                	mov    edx,DWORD PTR [rdx]
    23b0:	8d 4a 08             	lea    ecx,[rdx+0x8]
    23b3:	48 8b 55 e8          	mov    rdx,QWORD PTR [rbp-0x18]
    23b7:	89 0a                	mov    DWORD PTR [rdx],ecx
    23b9:	eb 14                	jmp    23cf <pfpopunsigned+0x167>
    23bb:	48 8b 45 e8          	mov    rax,QWORD PTR [rbp-0x18]
    23bf:	48 8b 40 08          	mov    rax,QWORD PTR [rax+0x8]
    23c3:	48 8d 48 08          	lea    rcx,[rax+0x8]
    23c7:	48 8b 55 e8          	mov    rdx,QWORD PTR [rbp-0x18]
    23cb:	48 89 4a 08          	mov    QWORD PTR [rdx+0x8],rcx
    23cf:	8b 00                	mov    eax,DWORD PTR [rax]
    23d1:	89 c2                	mov    edx,eax
    23d3:	48 8b 45 f8          	mov    rax,QWORD PTR [rbp-0x8]
    23d7:	48 89 10             	mov    QWORD PTR [rax],rdx
    23da:	e9 c0 01 00 00       	jmp    259f <pfpopunsigned+0x337>
    23df:	83 7d f4 09          	cmp    DWORD PTR [rbp-0xc],0x9
    23e3:	75 52                	jne    2437 <pfpopunsigned+0x1cf>
    23e5:	48 8b 45 e8          	mov    rax,QWORD PTR [rbp-0x18]
    23e9:	8b 00                	mov    eax,DWORD PTR [rax]
    23eb:	83 f8 2f             	cmp    eax,0x2f
    23ee:	77 24                	ja     2414 <pfpopunsigned+0x1ac>
    23f0:	48 8b 45 e8          	mov    rax,QWORD PTR [rbp-0x18]
    23f4:	48 8b 50 10          	mov    rdx,QWORD PTR [rax+0x10]
    23f8:	48 8b 45 e8          	mov    rax,QWORD PTR [rbp-0x18]
    23fc:	8b 00                	mov    eax,DWORD PTR [rax]
    23fe:	89 c0                	mov    eax,eax
    2400:	48 01 d0             	add    rax,rdx
    2403:	48 8b 55 e8          	mov    rdx,QWORD PTR [rbp-0x18]
    2407:	8b 12                	mov    edx,DWORD PTR [rdx]
    2409:	8d 4a 08             	lea    ecx,[rdx+0x8]
    240c:	48 8b 55 e8          	mov    rdx,QWORD PTR [rbp-0x18]
    2410:	89 0a                	mov    DWORD PTR [rdx],ecx
    2412:	eb 14                	jmp    2428 <pfpopunsigned+0x1c0>
    2414:	48 8b 45 e8          	mov    rax,QWORD PTR [rbp-0x18]
    2418:	48 8b 40 08          	mov    rax,QWORD PTR [rax+0x8]
    241c:	48 8d 48 08          	lea    rcx,[rax+0x8]
    2420:	48 8b 55 e8          	mov    rdx,QWORD PTR [rbp-0x18]
    2424:	48 89 4a 08          	mov    QWORD PTR [rdx+0x8],rcx
    2428:	48 8b 10             	mov    rdx,QWORD PTR [rax]
    242b:	48 8b 45 f8          	mov    rax,QWORD PTR [rbp-0x8]
    242f:	48 89 10             	mov    QWORD PTR [rax],rdx
    2432:	e9 68 01 00 00       	jmp    259f <pfpopunsigned+0x337>
    2437:	83 7d f4 0b          	cmp    DWORD PTR [rbp-0xc],0xb
    243b:	75 52                	jne    248f <pfpopunsigned+0x227>
    243d:	48 8b 45 e8          	mov    rax,QWORD PTR [rbp-0x18]
    2441:	8b 00                	mov    eax,DWORD PTR [rax]
    2443:	83 f8 2f             	cmp    eax,0x2f
    2446:	77 24                	ja     246c <pfpopunsigned+0x204>
    2448:	48 8b 45 e8          	mov    rax,QWORD PTR [rbp-0x18]
    244c:	48 8b 50 10          	mov    rdx,QWORD PTR [rax+0x10]
    2450:	48 8b 45 e8          	mov    rax,QWORD PTR [rbp-0x18]
    2454:	8b 00                	mov    eax,DWORD PTR [rax]
    2456:	89 c0                	mov    eax,eax
    2458:	48 01 d0             	add    rax,rdx
    245b:	48 8b 55 e8          	mov    rdx,QWORD PTR [rbp-0x18]
    245f:	8b 12                	mov    edx,DWORD PTR [rdx]
    2461:	8d 4a 08             	lea    ecx,[rdx+0x8]
    2464:	48 8b 55 e8          	mov    rdx,QWORD PTR [rbp-0x18]
    2468:	89 0a                	mov    DWORD PTR [rdx],ecx
    246a:	eb 14                	jmp    2480 <pfpopunsigned+0x218>
    246c:	48 8b 45 e8          	mov    rax,QWORD PTR [rbp-0x18]
    2470:	48 8b 40 08          	mov    rax,QWORD PTR [rax+0x8]
    2474:	48 8d 48 08          	lea    rcx,[rax+0x8]
    2478:	48 8b 55 e8          	mov    rdx,QWORD PTR [rbp-0x18]
    247c:	48 89 4a 08          	mov    QWORD PTR [rdx+0x8],rcx
    2480:	48 8b 10             	mov    rdx,QWORD PTR [rax]
    2483:	48 8b 45 f8          	mov    rax,QWORD PTR [rbp-0x8]
    2487:	48 89 10             	mov    QWORD PTR [rax],rdx
    248a:	e9 10 01 00 00       	jmp    259f <pfpopunsigned+0x337>
    248f:	83 7d f4 0e          	cmp    DWORD PTR [rbp-0xc],0xe
    2493:	75 52                	jne    24e7 <pfpopunsigned+0x27f>
    2495:	48 8b 45 e8          	mov    rax,QWORD PTR [rbp-0x18]
    2499:	8b 00                	mov    eax,DWORD PTR [rax]
    249b:	83 f8 2f             	cmp    eax,0x2f
    249e:	77 24                	ja     24c4 <pfpopunsigned+0x25c>
    24a0:	48 8b 45 e8          	mov    rax,QWORD PTR [rbp-0x18]
    24a4:	48 8b 50 10          	mov    rdx,QWORD PTR [rax+0x10]
    24a8:	48 8b 45 e8          	mov    rax,QWORD PTR [rbp-0x18]
    24ac:	8b 00                	mov    eax,DWORD PTR [rax]
    24ae:	89 c0                	mov    eax,eax
    24b0:	48 01 d0             	add    rax,rdx
    24b3:	48 8b 55 e8          	mov    rdx,QWORD PTR [rbp-0x18]
    24b7:	8b 12                	mov    edx,DWORD PTR [rdx]
    24b9:	8d 4a 08             	lea    ecx,[rdx+0x8]
    24bc:	48 8b 55 e8          	mov    rdx,QWORD PTR [rbp-0x18]
    24c0:	89 0a                	mov    DWORD PTR [rdx],ecx
    24c2:	eb 14                	jmp    24d8 <pfpopunsigned+0x270>
    24c4:	48 8b 45 e8          	mov    rax,QWORD PTR [rbp-0x18]
    24c8:	48 8b 40 08          	mov    rax,QWORD PTR [rax+0x8]
    24cc:	48 8d 48 08          	lea    rcx,[rax+0x8]
    24d0:	48 8b 55 e8          	mov    rdx,QWORD PTR [rbp-0x18]
    24d4:	48 89 4a 08          	mov    QWORD PTR [rdx+0x8],rcx
    24d8:	48 8b 10             	mov    rdx,QWORD PTR [rax]
    24db:	48 8b 45 f8          	mov    rax,QWORD PTR [rbp-0x8]
    24df:	48 89 10             	mov    QWORD PTR [rax],rdx
    24e2:	e9 b8 00 00 00       	jmp    259f <pfpopunsigned+0x337>
    24e7:	83 7d f4 10          	cmp    DWORD PTR [rbp-0xc],0x10
    24eb:	75 4f                	jne    253c <pfpopunsigned+0x2d4>
    24ed:	48 8b 45 e8          	mov    rax,QWORD PTR [rbp-0x18]
    24f1:	8b 00                	mov    eax,DWORD PTR [rax]
    24f3:	83 f8 2f             	cmp    eax,0x2f
    24f6:	77 24                	ja     251c <pfpopunsigned+0x2b4>
    24f8:	48 8b 45 e8          	mov    rax,QWORD PTR [rbp-0x18]
    24fc:	48 8b 50 10          	mov    rdx,QWORD PTR [rax+0x10]
    2500:	48 8b 45 e8          	mov    rax,QWORD PTR [rbp-0x18]
    2504:	8b 00                	mov    eax,DWORD PTR [rax]
    2506:	89 c0                	mov    eax,eax
    2508:	48 01 d0             	add    rax,rdx
    250b:	48 8b 55 e8          	mov    rdx,QWORD PTR [rbp-0x18]
    250f:	8b 12                	mov    edx,DWORD PTR [rdx]
    2511:	8d 4a 08             	lea    ecx,[rdx+0x8]
    2514:	48 8b 55 e8          	mov    rdx,QWORD PTR [rbp-0x18]
    2518:	89 0a                	mov    DWORD PTR [rdx],ecx
    251a:	eb 14                	jmp    2530 <pfpopunsigned+0x2c8>
    251c:	48 8b 45 e8          	mov    rax,QWORD PTR [rbp-0x18]
    2520:	48 8b 40 08          	mov    rax,QWORD PTR [rax+0x8]
    2524:	48 8d 48 08          	lea    rcx,[rax+0x8]
    2528:	48 8b 55 e8          	mov    rdx,QWORD PTR [rbp-0x18]
    252c:	48 89 4a 08          	mov    QWORD PTR [rdx+0x8],rcx
    2530:	48 8b 10             	mov    rdx,QWORD PTR [rax]
    2533:	48 8b 45 f8          	mov    rax,QWORD PTR [rbp-0x8]
    2537:	48 89 10             	mov    QWORD PTR [rax],rdx
    253a:	eb 63                	jmp    259f <pfpopunsigned+0x337>
    253c:	83 7d f4 11          	cmp    DWORD PTR [rbp-0xc],0x11
    2540:	75 52                	jne    2594 <pfpopunsigned+0x32c>
    2542:	48 8b 45 e8          	mov    rax,QWORD PTR [rbp-0x18]
    2546:	8b 00                	mov    eax,DWORD PTR [rax]
    2548:	83 f8 2f             	cmp    eax,0x2f
    254b:	77 24                	ja     2571 <pfpopunsigned+0x309>
    254d:	48 8b 45 e8          	mov    rax,QWORD PTR [rbp-0x18]
    2551:	48 8b 50 10          	mov    rdx,QWORD PTR [rax+0x10]
    2555:	48 8b 45 e8          	mov    rax,QWORD PTR [rbp-0x18]
    2559:	8b 00                	mov    eax,DWORD PTR [rax]
    255b:	89 c0                	mov    eax,eax
    255d:	48 01 d0             	add    rax,rdx
    2560:	48 8b 55 e8          	mov    rdx,QWORD PTR [rbp-0x18]
    2564:	8b 12                	mov    edx,DWORD PTR [rdx]
    2566:	8d 4a 08             	lea    ecx,[rdx+0x8]
    2569:	48 8b 55 e8          	mov    rdx,QWORD PTR [rbp-0x18]
    256d:	89 0a                	mov    DWORD PTR [rdx],ecx
    256f:	eb 14                	jmp    2585 <pfpopunsigned+0x31d>
    2571:	48 8b 45 e8          	mov    rax,QWORD PTR [rbp-0x18]
    2575:	48 8b 40 08          	mov    rax,QWORD PTR [rax+0x8]
    2579:	48 8d 48 08          	lea    rcx,[rax+0x8]
    257d:	48 8b 55 e8          	mov    rdx,QWORD PTR [rbp-0x18]
    2581:	48 89 4a 08          	mov    QWORD PTR [rdx+0x8],rcx
    2585:	48 8b 00             	mov    rax,QWORD PTR [rax]
    2588:	48 89 c2             	mov    rdx,rax
    258b:	48 8b 45 f8          	mov    rax,QWORD PTR [rbp-0x8]
    258f:	48 89 10             	mov    QWORD PTR [rax],rdx
    2592:	eb 0b                	jmp    259f <pfpopunsigned+0x337>
    2594:	48 8b 45 f8          	mov    rax,QWORD PTR [rbp-0x8]
    2598:	48 c7 00 00 00 00 00 	mov    QWORD PTR [rax],0x0
    259f:	90                   	nop
    25a0:	5d                   	pop    rbp
    25a1:	c3                   	ret    

00000000000025a2 <pfpop>:
    25a2:	55                   	push   rbp
    25a3:	48 89 e5             	mov    rbp,rsp
    25a6:	48 83 ec 20          	sub    rsp,0x20
    25aa:	48 89 7d f8          	mov    QWORD PTR [rbp-0x8],rdi
    25ae:	89 75 f4             	mov    DWORD PTR [rbp-0xc],esi
    25b1:	48 89 55 e8          	mov    QWORD PTR [rbp-0x18],rdx
    25b5:	83 7d f4 12          	cmp    DWORD PTR [rbp-0xc],0x12
    25b9:	75 10                	jne    25cb <pfpop+0x29>
    25bb:	48 8b 45 f8          	mov    rax,QWORD PTR [rbp-0x8]
    25bf:	48 c7 00 00 00 00 00 	mov    QWORD PTR [rax],0x0
    25c6:	e9 13 03 00 00       	jmp    28de <pfpop+0x33c>
    25cb:	83 7d f4 00          	cmp    DWORD PTR [rbp-0xc],0x0
    25cf:	75 52                	jne    2623 <pfpop+0x81>
    25d1:	48 8b 45 e8          	mov    rax,QWORD PTR [rbp-0x18]
    25d5:	8b 00                	mov    eax,DWORD PTR [rax]
    25d7:	83 f8 2f             	cmp    eax,0x2f
    25da:	77 24                	ja     2600 <pfpop+0x5e>
    25dc:	48 8b 45 e8          	mov    rax,QWORD PTR [rbp-0x18]
    25e0:	48 8b 50 10          	mov    rdx,QWORD PTR [rax+0x10]
    25e4:	48 8b 45 e8          	mov    rax,QWORD PTR [rbp-0x18]
    25e8:	8b 00                	mov    eax,DWORD PTR [rax]
    25ea:	89 c0                	mov    eax,eax
    25ec:	48 01 d0             	add    rax,rdx
    25ef:	48 8b 55 e8          	mov    rdx,QWORD PTR [rbp-0x18]
    25f3:	8b 12                	mov    edx,DWORD PTR [rdx]
    25f5:	8d 4a 08             	lea    ecx,[rdx+0x8]
    25f8:	48 8b 55 e8          	mov    rdx,QWORD PTR [rbp-0x18]
    25fc:	89 0a                	mov    DWORD PTR [rdx],ecx
    25fe:	eb 14                	jmp    2614 <pfpop+0x72>
    2600:	48 8b 45 e8          	mov    rax,QWORD PTR [rbp-0x18]
    2604:	48 8b 40 08          	mov    rax,QWORD PTR [rax+0x8]
    2608:	48 8d 48 08          	lea    rcx,[rax+0x8]
    260c:	48 8b 55 e8          	mov    rdx,QWORD PTR [rbp-0x18]
    2610:	48 89 4a 08          	mov    QWORD PTR [rdx+0x8],rcx
    2614:	48 8b 10             	mov    rdx,QWORD PTR [rax]
    2617:	48 8b 45 f8          	mov    rax,QWORD PTR [rbp-0x8]
    261b:	48 89 10             	mov    QWORD PTR [rax],rdx
    261e:	e9 bb 02 00 00       	jmp    28de <pfpop+0x33c>
    2623:	83 7d f4 02          	cmp    DWORD PTR [rbp-0xc],0x2
    2627:	75 55                	jne    267e <pfpop+0xdc>
    2629:	48 8b 45 e8          	mov    rax,QWORD PTR [rbp-0x18]
    262d:	8b 00                	mov    eax,DWORD PTR [rax]
    262f:	83 f8 2f             	cmp    eax,0x2f
    2632:	77 24                	ja     2658 <pfpop+0xb6>
    2634:	48 8b 45 e8          	mov    rax,QWORD PTR [rbp-0x18]
    2638:	48 8b 50 10          	mov    rdx,QWORD PTR [rax+0x10]
    263c:	48 8b 45 e8          	mov    rax,QWORD PTR [rbp-0x18]
    2640:	8b 00                	mov    eax,DWORD PTR [rax]
    2642:	89 c0                	mov    eax,eax
    2644:	48 01 d0             	add    rax,rdx
    2647:	48 8b 55 e8          	mov    rdx,QWORD PTR [rbp-0x18]
    264b:	8b 12                	mov    edx,DWORD PTR [rdx]
    264d:	8d 4a 08             	lea    ecx,[rdx+0x8]
    2650:	48 8b 55 e8          	mov    rdx,QWORD PTR [rbp-0x18]
    2654:	89 0a                	mov    DWORD PTR [rdx],ecx
    2656:	eb 14                	jmp    266c <pfpop+0xca>
    2658:	48 8b 45 e8          	mov    rax,QWORD PTR [rbp-0x18]
    265c:	48 8b 40 08          	mov    rax,QWORD PTR [rax+0x8]
    2660:	48 8d 48 08          	lea    rcx,[rax+0x8]
    2664:	48 8b 55 e8          	mov    rdx,QWORD PTR [rbp-0x18]
    2668:	48 89 4a 08          	mov    QWORD PTR [rdx+0x8],rcx
    266c:	8b 00                	mov    eax,DWORD PTR [rax]
    266e:	48 0f be d0          	movsx  rdx,al
    2672:	48 8b 45 f8          	mov    rax,QWORD PTR [rbp-0x8]
    2676:	48 89 10             	mov    QWORD PTR [rax],rdx
    2679:	e9 60 02 00 00       	jmp    28de <pfpop+0x33c>
    267e:	83 7d f4 04          	cmp    DWORD PTR [rbp-0xc],0x4
    2682:	75 55                	jne    26d9 <pfpop+0x137>
    2684:	48 8b 45 e8          	mov    rax,QWORD PTR [rbp-0x18]
    2688:	8b 00                	mov    eax,DWORD PTR [rax]
    268a:	83 f8 2f             	cmp    eax,0x2f
    268d:	77 24                	ja     26b3 <pfpop+0x111>
    268f:	48 8b 45 e8          	mov    rax,QWORD PTR [rbp-0x18]
    2693:	48 8b 50 10          	mov    rdx,QWORD PTR [rax+0x10]
    2697:	48 8b 45 e8          	mov    rax,QWORD PTR [rbp-0x18]
    269b:	8b 00                	mov    eax,DWORD PTR [rax]
    269d:	89 c0                	mov    eax,eax
    269f:	48 01 d0             	add    rax,rdx
    26a2:	48 8b 55 e8          	mov    rdx,QWORD PTR [rbp-0x18]
    26a6:	8b 12                	mov    edx,DWORD PTR [rdx]
    26a8:	8d 4a 08             	lea    ecx,[rdx+0x8]
    26ab:	48 8b 55 e8          	mov    rdx,QWORD PTR [rbp-0x18]
    26af:	89 0a                	mov    DWORD PTR [rdx],ecx
    26b1:	eb 14                	jmp    26c7 <pfpop+0x125>
    26b3:	48 8b 45 e8          	mov    rax,QWORD PTR [rbp-0x18]
    26b7:	48 8b 40 08          	mov    rax,QWORD PTR [rax+0x8]
    26bb:	48 8d 48 08          	lea    rcx,[rax+0x8]
    26bf:	48 8b 55 e8          	mov    rdx,QWORD PTR [rbp-0x18]
    26c3:	48 89 4a 08          	mov    QWORD PTR [rdx+0x8],rcx
    26c7:	8b 00                	mov    eax,DWORD PTR [rax]
    26c9:	48 0f bf d0          	movsx  rdx,ax
    26cd:	48 8b 45 f8          	mov    rax,QWORD PTR [rbp-0x8]
    26d1:	48 89 10             	mov    QWORD PTR [rax],rdx
    26d4:	e9 05 02 00 00       	jmp    28de <pfpop+0x33c>
    26d9:	83 7d f4 06          	cmp    DWORD PTR [rbp-0xc],0x6
    26dd:	75 54                	jne    2733 <pfpop+0x191>
    26df:	48 8b 45 e8          	mov    rax,QWORD PTR [rbp-0x18]
    26e3:	8b 00                	mov    eax,DWORD PTR [rax]
    26e5:	83 f8 2f             	cmp    eax,0x2f
    26e8:	77 24                	ja     270e <pfpop+0x16c>
    26ea:	48 8b 45 e8          	mov    rax,QWORD PTR [rbp-0x18]
    26ee:	48 8b 50 10          	mov    rdx,QWORD PTR [rax+0x10]
    26f2:	48 8b 45 e8          	mov    rax,QWORD PTR [rbp-0x18]
    26f6:	8b 00                	mov    eax,DWORD PTR [rax]
    26f8:	89 c0                	mov    eax,eax
    26fa:	48 01 d0             	add    rax,rdx
    26fd:	48 8b 55 e8          	mov    rdx,QWORD PTR [rbp-0x18]
    2701:	8b 12                	mov    edx,DWORD PTR [rdx]
    2703:	8d 4a 08             	lea    ecx,[rdx+0x8]
    2706:	48 8b 55 e8          	mov    rdx,QWORD PTR [rbp-0x18]
    270a:	89 0a                	mov    DWORD PTR [rdx],ecx
    270c:	eb 14                	jmp    2722 <pfpop+0x180>
    270e:	48 8b 45 e8          	mov    rax,QWORD PTR [rbp-0x18]
    2712:	48 8b 40 08          	mov    rax,QWORD PTR [rax+0x8]
    2716:	48 8d 48 08          	lea    rcx,[rax+0x8]
    271a:	48 8b 55 e8          	mov    rdx,QWORD PTR [rbp-0x18]
    271e:	48 89 4a 08          	mov    QWORD PTR [rdx+0x8],rcx
    2722:	8b 00                	mov    eax,DWORD PTR [rax]
    2724:	48 63 d0             	movsxd rdx,eax
    2727:	48 8b 45 f8          	mov    rax,QWORD PTR [rbp-0x8]
    272b:	48 89 10             	mov    QWORD PTR [rax],rdx
    272e:	e9 ab 01 00 00       	jmp    28de <pfpop+0x33c>
    2733:	83 7d f4 08          	cmp    DWORD PTR [rbp-0xc],0x8
    2737:	75 55                	jne    278e <pfpop+0x1ec>
    2739:	48 8b 45 e8          	mov    rax,QWORD PTR [rbp-0x18]
    273d:	8b 00                	mov    eax,DWORD PTR [rax]
    273f:	83 f8 2f             	cmp    eax,0x2f
    2742:	77 24                	ja     2768 <pfpop+0x1c6>
    2744:	48 8b 45 e8          	mov    rax,QWORD PTR [rbp-0x18]
    2748:	48 8b 50 10          	mov    rdx,QWORD PTR [rax+0x10]
    274c:	48 8b 45 e8          	mov    rax,QWORD PTR [rbp-0x18]
    2750:	8b 00                	mov    eax,DWORD PTR [rax]
    2752:	89 c0                	mov    eax,eax
    2754:	48 01 d0             	add    rax,rdx
    2757:	48 8b 55 e8          	mov    rdx,QWORD PTR [rbp-0x18]
    275b:	8b 12                	mov    edx,DWORD PTR [rdx]
    275d:	8d 4a 08             	lea    ecx,[rdx+0x8]
    2760:	48 8b 55 e8          	mov    rdx,QWORD PTR [rbp-0x18]
    2764:	89 0a                	mov    DWORD PTR [rdx],ecx
    2766:	eb 14                	jmp    277c <pfpop+0x1da>
    2768:	48 8b 45 e8          	mov    rax,QWORD PTR [rbp-0x18]
    276c:	48 8b 40 08          	mov    rax,QWORD PTR [rax+0x8]
    2770:	48 8d 48 08          	lea    rcx,[rax+0x8]
    2774:	48 8b 55 e8          	mov    rdx,QWORD PTR [rbp-0x18]
    2778:	48 89 4a 08          	mov    QWORD PTR [rdx+0x8],rcx
    277c:	48 8b 00             	mov    rax,QWORD PTR [rax]
    277f:	48 89 c2             	mov    rdx,rax
    2782:	48 8b 45 f8          	mov    rax,QWORD PTR [rbp-0x8]
    2786:	48 89 10             	mov    QWORD PTR [rax],rdx
    2789:	e9 50 01 00 00       	jmp    28de <pfpop+0x33c>
    278e:	83 7d f4 0a          	cmp    DWORD PTR [rbp-0xc],0xa
    2792:	75 55                	jne    27e9 <pfpop+0x247>
    2794:	48 8b 45 e8          	mov    rax,QWORD PTR [rbp-0x18]
    2798:	8b 00                	mov    eax,DWORD PTR [rax]
    279a:	83 f8 2f             	cmp    eax,0x2f
    279d:	77 24                	ja     27c3 <pfpop+0x221>
    279f:	48 8b 45 e8          	mov    rax,QWORD PTR [rbp-0x18]
    27a3:	48 8b 50 10          	mov    rdx,QWORD PTR [rax+0x10]
    27a7:	48 8b 45 e8          	mov    rax,QWORD PTR [rbp-0x18]
    27ab:	8b 00                	mov    eax,DWORD PTR [rax]
    27ad:	89 c0                	mov    eax,eax
    27af:	48 01 d0             	add    rax,rdx
    27b2:	48 8b 55 e8          	mov    rdx,QWORD PTR [rbp-0x18]
    27b6:	8b 12                	mov    edx,DWORD PTR [rdx]
    27b8:	8d 4a 08             	lea    ecx,[rdx+0x8]
    27bb:	48 8b 55 e8          	mov    rdx,QWORD PTR [rbp-0x18]
    27bf:	89 0a                	mov    DWORD PTR [rdx],ecx
    27c1:	eb 14                	jmp    27d7 <pfpop+0x235>
    27c3:	48 8b 45 e8          	mov    rax,QWORD PTR [rbp-0x18]
    27c7:	48 8b 40 08          	mov    rax,QWORD PTR [rax+0x8]
    27cb:	48 8d 48 08          	lea    rcx,[rax+0x8]
    27cf:	48 8b 55 e8          	mov    rdx,QWORD PTR [rbp-0x18]
    27d3:	48 89 4a 08          	mov    QWORD PTR [rdx+0x8],rcx
    27d7:	48 8b 00             	mov    rax,QWORD PTR [rax]
    27da:	48 89 c2             	mov    rdx,rax
    27dd:	48 8b 45 f8          	mov    rax,QWORD PTR [rbp-0x8]
    27e1:	48 89 10             	mov    QWORD PTR [rax],rdx
    27e4:	e9 f5 00 00 00       	jmp    28de <pfpop+0x33c>
    27e9:	83 7d f4 0c          	cmp    DWORD PTR [rbp-0xc],0xc
    27ed:	75 56                	jne    2845 <pfpop+0x2a3>
    27ef:	48 8b 45 e8          	mov    rax,QWORD PTR [rbp-0x18]
    27f3:	8b 40 04             	mov    eax,DWORD PTR [rax+0x4]
    27f6:	3d af 00 00 00       	cmp    eax,0xaf
    27fb:	77 27                	ja     2824 <pfpop+0x282>
    27fd:	48 8b 45 e8          	mov    rax,QWORD PTR [rbp-0x18]
    2801:	48 8b 50 10          	mov    rdx,QWORD PTR [rax+0x10]
    2805:	48 8b 45 e8          	mov    rax,QWORD PTR [rbp-0x18]
    2809:	8b 40 04             	mov    eax,DWORD PTR [rax+0x4]
    280c:	89 c0                	mov    eax,eax
    280e:	48 01 d0             	add    rax,rdx
    2811:	48 8b 55 e8          	mov    rdx,QWORD PTR [rbp-0x18]
    2815:	8b 52 04             	mov    edx,DWORD PTR [rdx+0x4]
    2818:	8d 4a 10             	lea    ecx,[rdx+0x10]
    281b:	48 8b 55 e8          	mov    rdx,QWORD PTR [rbp-0x18]
    281f:	89 4a 04             	mov    DWORD PTR [rdx+0x4],ecx
    2822:	eb 14                	jmp    2838 <pfpop+0x296>
    2824:	48 8b 45 e8          	mov    rax,QWORD PTR [rbp-0x18]
    2828:	48 8b 40 08          	mov    rax,QWORD PTR [rax+0x8]
    282c:	48 8d 48 08          	lea    rcx,[rax+0x8]
    2830:	48 8b 55 e8          	mov    rdx,QWORD PTR [rbp-0x18]
    2834:	48 89 4a 08          	mov    QWORD PTR [rdx+0x8],rcx
    2838:	dd 00                	fld    QWORD PTR [rax]
    283a:	48 8b 45 f8          	mov    rax,QWORD PTR [rbp-0x8]
    283e:	db 38                	fstp   TBYTE PTR [rax]
    2840:	e9 99 00 00 00       	jmp    28de <pfpop+0x33c>
    2845:	83 7d f4 0d          	cmp    DWORD PTR [rbp-0xc],0xd
    2849:	75 26                	jne    2871 <pfpop+0x2cf>
    284b:	48 8b 45 e8          	mov    rax,QWORD PTR [rbp-0x18]
    284f:	48 8b 40 08          	mov    rax,QWORD PTR [rax+0x8]
    2853:	48 83 c0 0f          	add    rax,0xf
    2857:	48 83 e0 f0          	and    rax,0xfffffffffffffff0
    285b:	48 8d 48 10          	lea    rcx,[rax+0x10]
    285f:	48 8b 55 e8          	mov    rdx,QWORD PTR [rbp-0x18]
    2863:	48 89 4a 08          	mov    QWORD PTR [rdx+0x8],rcx
    2867:	db 28                	fld    TBYTE PTR [rax]
    2869:	48 8b 45 f8          	mov    rax,QWORD PTR [rbp-0x8]
    286d:	db 38                	fstp   TBYTE PTR [rax]
    286f:	eb 6d                	jmp    28de <pfpop+0x33c>
    2871:	83 7d f4 0f          	cmp    DWORD PTR [rbp-0xc],0xf
    2875:	75 52                	jne    28c9 <pfpop+0x327>
    2877:	48 8b 45 e8          	mov    rax,QWORD PTR [rbp-0x18]
    287b:	8b 00                	mov    eax,DWORD PTR [rax]
    287d:	83 f8 2f             	cmp    eax,0x2f
    2880:	77 24                	ja     28a6 <pfpop+0x304>
    2882:	48 8b 45 e8          	mov    rax,QWORD PTR [rbp-0x18]
    2886:	48 8b 50 10          	mov    rdx,QWORD PTR [rax+0x10]
    288a:	48 8b 45 e8          	mov    rax,QWORD PTR [rbp-0x18]
    288e:	8b 00                	mov    eax,DWORD PTR [rax]
    2890:	89 c0                	mov    eax,eax
    2892:	48 01 d0             	add    rax,rdx
    2895:	48 8b 55 e8          	mov    rdx,QWORD PTR [rbp-0x18]
    2899:	8b 12                	mov    edx,DWORD PTR [rdx]
    289b:	8d 4a 08             	lea    ecx,[rdx+0x8]
    289e:	48 8b 55 e8          	mov    rdx,QWORD PTR [rbp-0x18]
    28a2:	89 0a                	mov    DWORD PTR [rdx],ecx
    28a4:	eb 14                	jmp    28ba <pfpop+0x318>
    28a6:	48 8b 45 e8          	mov    rax,QWORD PTR [rbp-0x18]
    28aa:	48 8b 40 08          	mov    rax,QWORD PTR [rax+0x8]
    28ae:	48 8d 48 08          	lea    rcx,[rax+0x8]
    28b2:	48 8b 55 e8          	mov    rdx,QWORD PTR [rbp-0x18]
    28b6:	48 89 4a 08          	mov    QWORD PTR [rdx+0x8],rcx
    28ba:	48 8b 00             	mov    rax,QWORD PTR [rax]
    28bd:	48 89 c2             	mov    rdx,rax
    28c0:	48 8b 45 f8          	mov    rax,QWORD PTR [rbp-0x8]
    28c4:	48 89 10             	mov    QWORD PTR [rax],rdx
    28c7:	eb 15                	jmp    28de <pfpop+0x33c>
    28c9:	48 8b 55 e8          	mov    rdx,QWORD PTR [rbp-0x18]
    28cd:	8b 4d f4             	mov    ecx,DWORD PTR [rbp-0xc]
    28d0:	48 8b 45 f8          	mov    rax,QWORD PTR [rbp-0x8]
    28d4:	89 ce                	mov    esi,ecx
    28d6:	48 89 c7             	mov    rdi,rax
    28d9:	e8 8a f9 ff ff       	call   2268 <pfpopunsigned>
    28de:	90                   	nop
    28df:	c9                   	leave  
    28e0:	c3                   	ret    

00000000000028e1 <pfcall>:
    28e1:	55                   	push   rbp
    28e2:	48 89 e5             	mov    rbp,rsp
    28e5:	48 83 ec 20          	sub    rsp,0x20
    28e9:	48 89 7d e8          	mov    QWORD PTR [rbp-0x18],rdi
    28ed:	48 89 75 e0          	mov    QWORD PTR [rbp-0x20],rsi
    28f1:	48 8b 45 e8          	mov    rax,QWORD PTR [rbp-0x18]
    28f5:	0f b6 40 18          	movzx  eax,BYTE PTR [rax+0x18]
    28f9:	0f be c0             	movsx  eax,al
    28fc:	83 e8 40             	sub    eax,0x40
    28ff:	48 98                	cdqe   
    2901:	48 8d 14 c5 00 00 00 	lea    rdx,[rax*8+0x0]
    2908:	00 
    2909:	48 8d 05 70 49 20 00 	lea    rax,[rip+0x204970]        # 207280 <g_handlers>
    2910:	48 8b 04 02          	mov    rax,QWORD PTR [rdx+rax*1]
    2914:	48 85 c0             	test   rax,rax
    2917:	75 0a                	jne    2923 <pfcall+0x42>
    2919:	b8 ff ff ff ff       	mov    eax,0xffffffff
    291e:	e9 be 02 00 00       	jmp    2be1 <pfcall+0x300>
    2923:	48 8b 45 e8          	mov    rax,QWORD PTR [rbp-0x18]
    2927:	48 8b 40 10          	mov    rax,QWORD PTR [rax+0x10]
    292b:	48 85 c0             	test   rax,rax
    292e:	75 36                	jne    2966 <pfcall+0x85>
    2930:	48 8b 45 e8          	mov    rax,QWORD PTR [rbp-0x18]
    2934:	0f b6 40 18          	movzx  eax,BYTE PTR [rax+0x18]
    2938:	0f be c0             	movsx  eax,al
    293b:	83 e8 40             	sub    eax,0x40
    293e:	48 63 d0             	movsxd rdx,eax
    2941:	48 8d 05 58 47 20 00 	lea    rax,[rip+0x204758]        # 2070a0 <g_types>
    2948:	0f b6 04 02          	movzx  eax,BYTE PTR [rdx+rax*1]
    294c:	0f b6 c8             	movzx  ecx,al
    294f:	48 8b 55 e0          	mov    rdx,QWORD PTR [rbp-0x20]
    2953:	48 8d 45 f0          	lea    rax,[rbp-0x10]
    2957:	89 ce                	mov    esi,ecx
    2959:	48 89 c7             	mov    rdi,rax
    295c:	e8 41 fc ff ff       	call   25a2 <pfpop>
    2961:	e9 43 02 00 00       	jmp    2ba9 <pfcall+0x2c8>
    2966:	48 8b 45 e8          	mov    rax,QWORD PTR [rbp-0x18]
    296a:	48 8b 40 10          	mov    rax,QWORD PTR [rax+0x10]
    296e:	0f b6 00             	movzx  eax,BYTE PTR [rax]
    2971:	3c 6c                	cmp    al,0x6c
    2973:	75 49                	jne    29be <pfcall+0xdd>
    2975:	48 8b 45 e8          	mov    rax,QWORD PTR [rbp-0x18]
    2979:	48 8b 40 10          	mov    rax,QWORD PTR [rax+0x10]
    297d:	48 83 c0 01          	add    rax,0x1
    2981:	0f b6 00             	movzx  eax,BYTE PTR [rax]
    2984:	3c 6c                	cmp    al,0x6c
    2986:	75 36                	jne    29be <pfcall+0xdd>
    2988:	48 8b 45 e8          	mov    rax,QWORD PTR [rbp-0x18]
    298c:	0f b6 40 18          	movzx  eax,BYTE PTR [rax+0x18]
    2990:	0f be c0             	movsx  eax,al
    2993:	83 e8 40             	sub    eax,0x40
    2996:	48 63 d0             	movsxd rdx,eax
    2999:	48 8d 05 76 47 20 00 	lea    rax,[rip+0x204776]        # 207116 <g_types+0x76>
    29a0:	0f b6 04 02          	movzx  eax,BYTE PTR [rdx+rax*1]
    29a4:	0f b6 c8             	movzx  ecx,al
    29a7:	48 8b 55 e0          	mov    rdx,QWORD PTR [rbp-0x20]
    29ab:	48 8d 45 f0          	lea    rax,[rbp-0x10]
    29af:	89 ce                	mov    esi,ecx
    29b1:	48 89 c7             	mov    rdi,rax
    29b4:	e8 e9 fb ff ff       	call   25a2 <pfpop>
    29b9:	e9 eb 01 00 00       	jmp    2ba9 <pfcall+0x2c8>
    29be:	48 8b 45 e8          	mov    rax,QWORD PTR [rbp-0x18]
    29c2:	48 8b 40 10          	mov    rax,QWORD PTR [rax+0x10]
    29c6:	0f b6 00             	movzx  eax,BYTE PTR [rax]
    29c9:	3c 68                	cmp    al,0x68
    29cb:	75 49                	jne    2a16 <pfcall+0x135>
    29cd:	48 8b 45 e8          	mov    rax,QWORD PTR [rbp-0x18]
    29d1:	48 8b 40 10          	mov    rax,QWORD PTR [rax+0x10]
    29d5:	48 83 c0 01          	add    rax,0x1
    29d9:	0f b6 00             	movzx  eax,BYTE PTR [rax]
    29dc:	3c 68                	cmp    al,0x68
    29de:	75 36                	jne    2a16 <pfcall+0x135>
    29e0:	48 8b 45 e8          	mov    rax,QWORD PTR [rbp-0x18]
    29e4:	0f b6 40 18          	movzx  eax,BYTE PTR [rax+0x18]
    29e8:	0f be c0             	movsx  eax,al
    29eb:	83 e8 40             	sub    eax,0x40
    29ee:	48 63 d0             	movsxd rdx,eax
    29f1:	48 8d 05 94 47 20 00 	lea    rax,[rip+0x204794]        # 20718c <g_types+0xec>
    29f8:	0f b6 04 02          	movzx  eax,BYTE PTR [rdx+rax*1]
    29fc:	0f b6 c8             	movzx  ecx,al
    29ff:	48 8b 55 e0          	mov    rdx,QWORD PTR [rbp-0x20]
    2a03:	48 8d 45 f0          	lea    rax,[rbp-0x10]
    2a07:	89 ce                	mov    esi,ecx
    2a09:	48 89 c7             	mov    rdi,rax
    2a0c:	e8 91 fb ff ff       	call   25a2 <pfpop>
    2a11:	e9 93 01 00 00       	jmp    2ba9 <pfcall+0x2c8>
    2a16:	48 8b 45 e8          	mov    rax,QWORD PTR [rbp-0x18]
    2a1a:	48 8b 40 10          	mov    rax,QWORD PTR [rax+0x10]
    2a1e:	0f b6 00             	movzx  eax,BYTE PTR [rax]
    2a21:	3c 6c                	cmp    al,0x6c
    2a23:	75 36                	jne    2a5b <pfcall+0x17a>
    2a25:	48 8b 45 e8          	mov    rax,QWORD PTR [rbp-0x18]
    2a29:	0f b6 40 18          	movzx  eax,BYTE PTR [rax+0x18]
    2a2d:	0f be c0             	movsx  eax,al
    2a30:	83 e8 40             	sub    eax,0x40
    2a33:	48 63 d0             	movsxd rdx,eax
    2a36:	48 8d 05 9e 46 20 00 	lea    rax,[rip+0x20469e]        # 2070db <g_types+0x3b>
    2a3d:	0f b6 04 02          	movzx  eax,BYTE PTR [rdx+rax*1]
    2a41:	0f b6 c8             	movzx  ecx,al
    2a44:	48 8b 55 e0          	mov    rdx,QWORD PTR [rbp-0x20]
    2a48:	48 8d 45 f0          	lea    rax,[rbp-0x10]
    2a4c:	89 ce                	mov    esi,ecx
    2a4e:	48 89 c7             	mov    rdi,rax
    2a51:	e8 4c fb ff ff       	call   25a2 <pfpop>
    2a56:	e9 4e 01 00 00       	jmp    2ba9 <pfcall+0x2c8>
    2a5b:	48 8b 45 e8          	mov    rax,QWORD PTR [rbp-0x18]
    2a5f:	48 8b 40 10          	mov    rax,QWORD PTR [rax+0x10]
    2a63:	0f b6 00             	movzx  eax,BYTE PTR [rax]
    2a66:	3c 68                	cmp    al,0x68
    2a68:	75 36                	jne    2aa0 <pfcall+0x1bf>
    2a6a:	48 8b 45 e8          	mov    rax,QWORD PTR [rbp-0x18]
    2a6e:	0f b6 40 18          	movzx  eax,BYTE PTR [rax+0x18]
    2a72:	0f be c0             	movsx  eax,al
    2a75:	83 e8 40             	sub    eax,0x40
    2a78:	48 63 d0             	movsxd rdx,eax
    2a7b:	48 8d 05 cf 46 20 00 	lea    rax,[rip+0x2046cf]        # 207151 <g_types+0xb1>
    2a82:	0f b6 04 02          	movzx  eax,BYTE PTR [rdx+rax*1]
    2a86:	0f b6 c8             	movzx  ecx,al
    2a89:	48 8b 55 e0          	mov    rdx,QWORD PTR [rbp-0x20]
    2a8d:	48 8d 45 f0          	lea    rax,[rbp-0x10]
    2a91:	89 ce                	mov    esi,ecx
    2a93:	48 89 c7             	mov    rdi,rax
    2a96:	e8 07 fb ff ff       	call   25a2 <pfpop>
    2a9b:	e9 09 01 00 00       	jmp    2ba9 <pfcall+0x2c8>
    2aa0:	48 8b 45 e8          	mov    rax,QWORD PTR [rbp-0x18]
    2aa4:	48 8b 40 10          	mov    rax,QWORD PTR [rax+0x10]
    2aa8:	0f b6 00             	movzx  eax,BYTE PTR [rax]
    2aab:	3c 4c                	cmp    al,0x4c
    2aad:	75 36                	jne    2ae5 <pfcall+0x204>
    2aaf:	48 8b 45 e8          	mov    rax,QWORD PTR [rbp-0x18]
    2ab3:	0f b6 40 18          	movzx  eax,BYTE PTR [rax+0x18]
    2ab7:	0f be c0             	movsx  eax,al
    2aba:	83 e8 40             	sub    eax,0x40
    2abd:	48 63 d0             	movsxd rdx,eax
    2ac0:	48 8d 05 00 47 20 00 	lea    rax,[rip+0x204700]        # 2071c7 <g_types+0x127>
    2ac7:	0f b6 04 02          	movzx  eax,BYTE PTR [rdx+rax*1]
    2acb:	0f b6 c8             	movzx  ecx,al
    2ace:	48 8b 55 e0          	mov    rdx,QWORD PTR [rbp-0x20]
    2ad2:	48 8d 45 f0          	lea    rax,[rbp-0x10]
    2ad6:	89 ce                	mov    esi,ecx
    2ad8:	48 89 c7             	mov    rdi,rax
    2adb:	e8 c2 fa ff ff       	call   25a2 <pfpop>
    2ae0:	e9 c4 00 00 00       	jmp    2ba9 <pfcall+0x2c8>
    2ae5:	48 8b 45 e8          	mov    rax,QWORD PTR [rbp-0x18]
    2ae9:	48 8b 40 10          	mov    rax,QWORD PTR [rax+0x10]
    2aed:	0f b6 00             	movzx  eax,BYTE PTR [rax]
    2af0:	3c 7a                	cmp    al,0x7a
    2af2:	74 0f                	je     2b03 <pfcall+0x222>
    2af4:	48 8b 45 e8          	mov    rax,QWORD PTR [rbp-0x18]
    2af8:	48 8b 40 10          	mov    rax,QWORD PTR [rax+0x10]
    2afc:	0f b6 00             	movzx  eax,BYTE PTR [rax]
    2aff:	3c 74                	cmp    al,0x74
    2b01:	75 33                	jne    2b36 <pfcall+0x255>
    2b03:	48 8b 45 e8          	mov    rax,QWORD PTR [rbp-0x18]
    2b07:	0f b6 40 18          	movzx  eax,BYTE PTR [rax+0x18]
    2b0b:	0f be c0             	movsx  eax,al
    2b0e:	83 e8 40             	sub    eax,0x40
    2b11:	48 63 d0             	movsxd rdx,eax
    2b14:	48 8d 05 e7 46 20 00 	lea    rax,[rip+0x2046e7]        # 207202 <g_types+0x162>
    2b1b:	0f b6 04 02          	movzx  eax,BYTE PTR [rdx+rax*1]
    2b1f:	0f b6 c8             	movzx  ecx,al
    2b22:	48 8b 55 e0          	mov    rdx,QWORD PTR [rbp-0x20]
    2b26:	48 8d 45 f0          	lea    rax,[rbp-0x10]
    2b2a:	89 ce                	mov    esi,ecx
    2b2c:	48 89 c7             	mov    rdi,rax
    2b2f:	e8 6e fa ff ff       	call   25a2 <pfpop>
    2b34:	eb 73                	jmp    2ba9 <pfcall+0x2c8>
    2b36:	48 8b 45 e8          	mov    rax,QWORD PTR [rbp-0x18]
    2b3a:	48 8b 40 10          	mov    rax,QWORD PTR [rax+0x10]
    2b3e:	0f b6 00             	movzx  eax,BYTE PTR [rax]
    2b41:	3c 6a                	cmp    al,0x6a
    2b43:	75 33                	jne    2b78 <pfcall+0x297>
    2b45:	48 8b 45 e8          	mov    rax,QWORD PTR [rbp-0x18]
    2b49:	0f b6 40 18          	movzx  eax,BYTE PTR [rax+0x18]
    2b4d:	0f be c0             	movsx  eax,al
    2b50:	83 e8 40             	sub    eax,0x40
    2b53:	48 63 d0             	movsxd rdx,eax
    2b56:	48 8d 05 e0 46 20 00 	lea    rax,[rip+0x2046e0]        # 20723d <g_types+0x19d>
    2b5d:	0f b6 04 02          	movzx  eax,BYTE PTR [rdx+rax*1]
    2b61:	0f b6 c8             	movzx  ecx,al
    2b64:	48 8b 55 e0          	mov    rdx,QWORD PTR [rbp-0x20]
    2b68:	48 8d 45 f0          	lea    rax,[rbp-0x10]
    2b6c:	89 ce                	mov    esi,ecx
    2b6e:	48 89 c7             	mov    rdi,rax
    2b71:	e8 2c fa ff ff       	call   25a2 <pfpop>
    2b76:	eb 31                	jmp    2ba9 <pfcall+0x2c8>
    2b78:	48 8b 45 e8          	mov    rax,QWORD PTR [rbp-0x18]
    2b7c:	0f b6 40 18          	movzx  eax,BYTE PTR [rax+0x18]
    2b80:	0f be c0             	movsx  eax,al
    2b83:	83 e8 40             	sub    eax,0x40
    2b86:	48 63 d0             	movsxd rdx,eax
    2b89:	48 8d 05 10 45 20 00 	lea    rax,[rip+0x204510]        # 2070a0 <g_types>
    2b90:	0f b6 04 02          	movzx  eax,BYTE PTR [rdx+rax*1]
    2b94:	0f b6 c8             	movzx  ecx,al
    2b97:	48 8b 55 e0          	mov    rdx,QWORD PTR [rbp-0x20]
    2b9b:	48 8d 45 f0          	lea    rax,[rbp-0x10]
    2b9f:	89 ce                	mov    esi,ecx
    2ba1:	48 89 c7             	mov    rdi,rax
    2ba4:	e8 f9 f9 ff ff       	call   25a2 <pfpop>
    2ba9:	48 8b 45 e8          	mov    rax,QWORD PTR [rbp-0x18]
    2bad:	0f b6 40 18          	movzx  eax,BYTE PTR [rax+0x18]
    2bb1:	0f be c0             	movsx  eax,al
    2bb4:	83 e8 40             	sub    eax,0x40
    2bb7:	48 98                	cdqe   
    2bb9:	48 8d 14 c5 00 00 00 	lea    rdx,[rax*8+0x0]
    2bc0:	00 
    2bc1:	48 8d 05 b8 46 20 00 	lea    rax,[rip+0x2046b8]        # 207280 <g_handlers>
    2bc8:	48 8b 04 02          	mov    rax,QWORD PTR [rdx+rax*1]
    2bcc:	48 8b 4d e8          	mov    rcx,QWORD PTR [rbp-0x18]
    2bd0:	48 8d 55 f0          	lea    rdx,[rbp-0x10]
    2bd4:	48 89 ce             	mov    rsi,rcx
    2bd7:	48 89 d7             	mov    rdi,rdx
    2bda:	ff d0                	call   rax
    2bdc:	b8 00 00 00 00       	mov    eax,0x0
    2be1:	c9                   	leave  
    2be2:	c3                   	ret    

0000000000002be3 <pfisvalid>:
    2be3:	55                   	push   rbp
    2be4:	48 89 e5             	mov    rbp,rsp
    2be7:	89 f8                	mov    eax,edi
    2be9:	88 45 fc             	mov    BYTE PTR [rbp-0x4],al
    2bec:	0f be 45 fc          	movsx  eax,BYTE PTR [rbp-0x4]
    2bf0:	83 e8 40             	sub    eax,0x40
    2bf3:	48 98                	cdqe   
    2bf5:	48 8d 14 c5 00 00 00 	lea    rdx,[rax*8+0x0]
    2bfc:	00 
    2bfd:	48 8d 05 7c 46 20 00 	lea    rax,[rip+0x20467c]        # 207280 <g_handlers>
    2c04:	48 8b 04 02          	mov    rax,QWORD PTR [rdx+rax*1]
    2c08:	48 85 c0             	test   rax,rax
    2c0b:	0f 95 c0             	setne  al
    2c0e:	0f b6 c0             	movzx  eax,al
    2c11:	5d                   	pop    rbp
    2c12:	c3                   	ret    

0000000000002c13 <ft_pfregister>:
    2c13:	55                   	push   rbp
    2c14:	48 89 e5             	mov    rbp,rsp
    2c17:	89 f8                	mov    eax,edi
    2c19:	48 89 75 f0          	mov    QWORD PTR [rbp-0x10],rsi
    2c1d:	89 55 f8             	mov    DWORD PTR [rbp-0x8],edx
    2c20:	88 45 fc             	mov    BYTE PTR [rbp-0x4],al
    2c23:	0f be 45 fc          	movsx  eax,BYTE PTR [rbp-0x4]
    2c27:	83 e8 40             	sub    eax,0x40
    2c2a:	83 f8 3b             	cmp    eax,0x3b
    2c2d:	7f 42                	jg     2c71 <ft_pfregister+0x5e>
    2c2f:	48 83 7d f0 00       	cmp    QWORD PTR [rbp-0x10],0x0
    2c34:	74 3b                	je     2c71 <ft_pfregister+0x5e>
    2c36:	0f be 45 fc          	movsx  eax,BYTE PTR [rbp-0x4]
    2c3a:	83 e8 40             	sub    eax,0x40
    2c3d:	48 98                	cdqe   
    2c3f:	48 8d 0c c5 00 00 00 	lea    rcx,[rax*8+0x0]
    2c46:	00 
    2c47:	48 8d 05 32 46 20 00 	lea    rax,[rip+0x204632]        # 207280 <g_handlers>
    2c4e:	48 8b 55 f0          	mov    rdx,QWORD PTR [rbp-0x10]
    2c52:	48 89 14 01          	mov    QWORD PTR [rcx+rax*1],rdx
    2c56:	0f be 45 fc          	movsx  eax,BYTE PTR [rbp-0x4]
    2c5a:	8d 50 c0             	lea    edx,[rax-0x40]
    2c5d:	8b 45 f8             	mov    eax,DWORD PTR [rbp-0x8]
    2c60:	89 c1                	mov    ecx,eax
    2c62:	48 63 d2             	movsxd rdx,edx
    2c65:	48 8d 05 34 44 20 00 	lea    rax,[rip+0x204434]        # 2070a0 <g_types>
    2c6c:	88 0c 02             	mov    BYTE PTR [rdx+rax*1],cl
    2c6f:	eb 01                	jmp    2c72 <ft_pfregister+0x5f>
    2c71:	90                   	nop
    2c72:	5d                   	pop    rbp
    2c73:	c3                   	ret    

0000000000002c74 <pfappend>:
    2c74:	55                   	push   rbp
    2c75:	48 89 e5             	mov    rbp,rsp
    2c78:	48 83 ec 20          	sub    rsp,0x20
    2c7c:	48 89 7d f8          	mov    QWORD PTR [rbp-0x8],rdi
    2c80:	48 89 75 f0          	mov    QWORD PTR [rbp-0x10],rsi
    2c84:	89 55 ec             	mov    DWORD PTR [rbp-0x14],edx
    2c87:	48 8b 45 38          	mov    rax,QWORD PTR [rbp+0x38]
    2c8b:	48 85 c0             	test   rax,rax
    2c8e:	75 0a                	jne    2c9a <pfappend+0x26>
    2c90:	b8 00 00 00 00       	mov    eax,0x0
    2c95:	e9 b4 00 00 00       	jmp    2d4e <pfappend+0xda>
    2c9a:	48 8b 45 f0          	mov    rax,QWORD PTR [rbp-0x10]
    2c9e:	8b 10                	mov    edx,DWORD PTR [rax]
    2ca0:	8b 45 40             	mov    eax,DWORD PTR [rbp+0x40]
    2ca3:	01 d0                	add    eax,edx
    2ca5:	83 c0 01             	add    eax,0x1
    2ca8:	48 63 d0             	movsxd rdx,eax
    2cab:	48 8b 45 f8          	mov    rax,QWORD PTR [rbp-0x8]
    2caf:	48 8b 00             	mov    rax,QWORD PTR [rax]
    2cb2:	48 89 d6             	mov    rsi,rdx
    2cb5:	48 89 c7             	mov    rdi,rax
    2cb8:	e8 d8 16 00 00       	call   4395 <ft_realloc>
    2cbd:	48 89 c2             	mov    rdx,rax
    2cc0:	48 8b 45 f8          	mov    rax,QWORD PTR [rbp-0x8]
    2cc4:	48 89 10             	mov    QWORD PTR [rax],rdx
    2cc7:	48 8b 45 f8          	mov    rax,QWORD PTR [rbp-0x8]
    2ccb:	48 8b 00             	mov    rax,QWORD PTR [rax]
    2cce:	48 85 c0             	test   rax,rax
    2cd1:	75 07                	jne    2cda <pfappend+0x66>
    2cd3:	b8 00 00 00 00       	mov    eax,0x0
    2cd8:	eb 74                	jmp    2d4e <pfappend+0xda>
    2cda:	8b 45 40             	mov    eax,DWORD PTR [rbp+0x40]
    2cdd:	48 63 d0             	movsxd rdx,eax
    2ce0:	48 8b 45 38          	mov    rax,QWORD PTR [rbp+0x38]
    2ce4:	48 8b 4d f8          	mov    rcx,QWORD PTR [rbp-0x8]
    2ce8:	48 8b 31             	mov    rsi,QWORD PTR [rcx]
    2ceb:	48 8b 4d f0          	mov    rcx,QWORD PTR [rbp-0x10]
    2cef:	8b 09                	mov    ecx,DWORD PTR [rcx]
    2cf1:	48 63 c9             	movsxd rcx,ecx
    2cf4:	48 01 f1             	add    rcx,rsi
    2cf7:	48 89 c6             	mov    rsi,rax
    2cfa:	48 89 cf             	mov    rdi,rcx
    2cfd:	e8 ba 10 00 00       	call   3dbc <ft_memcpy>
    2d02:	48 8b 45 f0          	mov    rax,QWORD PTR [rbp-0x10]
    2d06:	8b 10                	mov    edx,DWORD PTR [rax]
    2d08:	8b 45 40             	mov    eax,DWORD PTR [rbp+0x40]
    2d0b:	01 c2                	add    edx,eax
    2d0d:	48 8b 45 f0          	mov    rax,QWORD PTR [rbp-0x10]
    2d11:	89 10                	mov    DWORD PTR [rax],edx
    2d13:	48 8b 45 38          	mov    rax,QWORD PTR [rbp+0x38]
    2d17:	48 85 c0             	test   rax,rax
    2d1a:	74 12                	je     2d2e <pfappend+0xba>
    2d1c:	83 7d ec 00          	cmp    DWORD PTR [rbp-0x14],0x0
    2d20:	74 0c                	je     2d2e <pfappend+0xba>
    2d22:	48 8b 45 38          	mov    rax,QWORD PTR [rbp+0x38]
    2d26:	48 89 c7             	mov    rdi,rax
    2d29:	e8 d2 e0 ff ff       	call   e00 <free@plt>
    2d2e:	48 8b 45 20          	mov    rax,QWORD PTR [rbp+0x20]
    2d32:	48 85 c0             	test   rax,rax
    2d35:	74 12                	je     2d49 <pfappend+0xd5>
    2d37:	83 7d ec 00          	cmp    DWORD PTR [rbp-0x14],0x0
    2d3b:	74 0c                	je     2d49 <pfappend+0xd5>
    2d3d:	48 8b 45 20          	mov    rax,QWORD PTR [rbp+0x20]
    2d41:	48 89 c7             	mov    rdi,rax
    2d44:	e8 b7 e0 ff ff       	call   e00 <free@plt>
    2d49:	b8 01 00 00 00       	mov    eax,0x1
    2d4e:	c9                   	leave  
    2d4f:	c3                   	ret    

0000000000002d50 <pfprepend>:
    2d50:	55                   	push   rbp
    2d51:	48 89 e5             	mov    rbp,rsp
    2d54:	48 83 ec 30          	sub    rsp,0x30
    2d58:	48 89 7d e8          	mov    QWORD PTR [rbp-0x18],rdi
    2d5c:	48 89 75 e0          	mov    QWORD PTR [rbp-0x20],rsi
    2d60:	89 55 dc             	mov    DWORD PTR [rbp-0x24],edx
    2d63:	48 83 7d e8 00       	cmp    QWORD PTR [rbp-0x18],0x0
    2d68:	74 07                	je     2d71 <pfprepend+0x21>
    2d6a:	48 83 7d e0 00       	cmp    QWORD PTR [rbp-0x20],0x0
    2d6f:	75 0a                	jne    2d7b <pfprepend+0x2b>
    2d71:	b8 ff ff ff ff       	mov    eax,0xffffffff
    2d76:	e9 c3 00 00 00       	jmp    2e3e <pfprepend+0xee>
    2d7b:	48 8b 45 e0          	mov    rax,QWORD PTR [rbp-0x20]
    2d7f:	48 8b 00             	mov    rax,QWORD PTR [rax]
    2d82:	48 89 c7             	mov    rdi,rax
    2d85:	e8 ff 11 00 00       	call   3f89 <ft_strlen>
    2d8a:	89 45 fc             	mov    DWORD PTR [rbp-0x4],eax
    2d8d:	48 8b 45 e8          	mov    rax,QWORD PTR [rbp-0x18]
    2d91:	48 89 c7             	mov    rdi,rax
    2d94:	e8 f0 11 00 00       	call   3f89 <ft_strlen>
    2d99:	89 45 f8             	mov    DWORD PTR [rbp-0x8],eax
    2d9c:	8b 55 fc             	mov    edx,DWORD PTR [rbp-0x4]
    2d9f:	8b 45 f8             	mov    eax,DWORD PTR [rbp-0x8]
    2da2:	01 d0                	add    eax,edx
    2da4:	83 c0 01             	add    eax,0x1
    2da7:	48 63 d0             	movsxd rdx,eax
    2daa:	48 8b 45 e0          	mov    rax,QWORD PTR [rbp-0x20]
    2dae:	48 8b 00             	mov    rax,QWORD PTR [rax]
    2db1:	48 89 d6             	mov    rsi,rdx
    2db4:	48 89 c7             	mov    rdi,rax
    2db7:	e8 d9 15 00 00       	call   4395 <ft_realloc>
    2dbc:	48 89 c2             	mov    rdx,rax
    2dbf:	48 8b 45 e0          	mov    rax,QWORD PTR [rbp-0x20]
    2dc3:	48 89 10             	mov    QWORD PTR [rax],rdx
    2dc6:	48 8b 45 e0          	mov    rax,QWORD PTR [rbp-0x20]
    2dca:	48 8b 00             	mov    rax,QWORD PTR [rax]
    2dcd:	48 85 c0             	test   rax,rax
    2dd0:	75 07                	jne    2dd9 <pfprepend+0x89>
    2dd2:	b8 ff ff ff ff       	mov    eax,0xffffffff
    2dd7:	eb 65                	jmp    2e3e <pfprepend+0xee>
    2dd9:	8b 45 fc             	mov    eax,DWORD PTR [rbp-0x4]
    2ddc:	83 c0 01             	add    eax,0x1
    2ddf:	48 63 d0             	movsxd rdx,eax
    2de2:	48 8b 45 e0          	mov    rax,QWORD PTR [rbp-0x20]
    2de6:	48 8b 00             	mov    rax,QWORD PTR [rax]
    2de9:	48 8b 4d e0          	mov    rcx,QWORD PTR [rbp-0x20]
    2ded:	48 8b 31             	mov    rsi,QWORD PTR [rcx]
    2df0:	8b 4d f8             	mov    ecx,DWORD PTR [rbp-0x8]
    2df3:	48 63 c9             	movsxd rcx,ecx
    2df6:	48 01 f1             	add    rcx,rsi
    2df9:	48 89 c6             	mov    rsi,rax
    2dfc:	48 89 cf             	mov    rdi,rcx
    2dff:	e8 5a 10 00 00       	call   3e5e <ft_memmove>
    2e04:	8b 45 f8             	mov    eax,DWORD PTR [rbp-0x8]
    2e07:	48 63 d0             	movsxd rdx,eax
    2e0a:	48 8b 45 e0          	mov    rax,QWORD PTR [rbp-0x20]
    2e0e:	48 8b 00             	mov    rax,QWORD PTR [rax]
    2e11:	48 8b 4d e8          	mov    rcx,QWORD PTR [rbp-0x18]
    2e15:	48 89 ce             	mov    rsi,rcx
    2e18:	48 89 c7             	mov    rdi,rax
    2e1b:	e8 9c 0f 00 00       	call   3dbc <ft_memcpy>
    2e20:	48 83 7d e8 00       	cmp    QWORD PTR [rbp-0x18],0x0
    2e25:	74 12                	je     2e39 <pfprepend+0xe9>
    2e27:	83 7d dc 00          	cmp    DWORD PTR [rbp-0x24],0x0
    2e2b:	74 0c                	je     2e39 <pfprepend+0xe9>
    2e2d:	48 8b 45 e8          	mov    rax,QWORD PTR [rbp-0x18]
    2e31:	48 89 c7             	mov    rdi,rax
    2e34:	e8 c7 df ff ff       	call   e00 <free@plt>
    2e39:	b8 00 00 00 00       	mov    eax,0x0
    2e3e:	c9                   	leave  
    2e3f:	c3                   	ret    

0000000000002e40 <pfdtostr>:
    2e40:	55                   	push   rbp
    2e41:	48 89 e5             	mov    rbp,rsp
    2e44:	48 83 ec 30          	sub    rsp,0x30
    2e48:	89 7d ec             	mov    DWORD PTR [rbp-0x14],edi
    2e4b:	89 75 e8             	mov    DWORD PTR [rbp-0x18],esi
    2e4e:	8b 45 ec             	mov    eax,DWORD PTR [rbp-0x14]
    2e51:	83 c0 17             	add    eax,0x17
    2e54:	48 98                	cdqe   
    2e56:	be 08 00 00 00       	mov    esi,0x8
    2e5b:	48 89 c7             	mov    rdi,rax
    2e5e:	e8 de 14 00 00       	call   4341 <ft_calloc>
    2e63:	48 89 45 f8          	mov    QWORD PTR [rbp-0x8],rax
    2e67:	48 83 7d f8 00       	cmp    QWORD PTR [rbp-0x8],0x0
    2e6c:	75 0a                	jne    2e78 <pfdtostr+0x38>
    2e6e:	b8 00 00 00 00       	mov    eax,0x0
    2e73:	e9 37 01 00 00       	jmp    2faf <pfdtostr+0x16f>
    2e78:	db 6d 10             	fld    TBYTE PTR [rbp+0x10]
    2e7b:	d9 7d e6             	fnstcw WORD PTR [rbp-0x1a]
    2e7e:	0f b7 45 e6          	movzx  eax,WORD PTR [rbp-0x1a]
    2e82:	80 cc 0c             	or     ah,0xc
    2e85:	66 89 45 e4          	mov    WORD PTR [rbp-0x1c],ax
    2e89:	d9 6d e4             	fldcw  WORD PTR [rbp-0x1c]
    2e8c:	df 7d d8             	fistp  QWORD PTR [rbp-0x28]
    2e8f:	d9 6d e6             	fldcw  WORD PTR [rbp-0x1a]
    2e92:	48 8b 45 d8          	mov    rax,QWORD PTR [rbp-0x28]
    2e96:	be 0a 00 00 00       	mov    esi,0xa
    2e9b:	48 89 c7             	mov    rdi,rax
    2e9e:	e8 49 15 00 00       	call   43ec <ft_itostr>
    2ea3:	48 89 45 f0          	mov    QWORD PTR [rbp-0x10],rax
    2ea7:	48 83 7d f0 00       	cmp    QWORD PTR [rbp-0x10],0x0
    2eac:	75 0a                	jne    2eb8 <pfdtostr+0x78>
    2eae:	b8 00 00 00 00       	mov    eax,0x0
    2eb3:	e9 f7 00 00 00       	jmp    2faf <pfdtostr+0x16f>
    2eb8:	db 6d 10             	fld    TBYTE PTR [rbp+0x10]
    2ebb:	d9 7d e6             	fnstcw WORD PTR [rbp-0x1a]
    2ebe:	0f b7 45 e6          	movzx  eax,WORD PTR [rbp-0x1a]
    2ec2:	80 cc 0c             	or     ah,0xc
    2ec5:	66 89 45 e4          	mov    WORD PTR [rbp-0x1c],ax
    2ec9:	d9 6d e4             	fldcw  WORD PTR [rbp-0x1c]
    2ecc:	df 7d d0             	fistp  QWORD PTR [rbp-0x30]
    2ecf:	d9 6d e6             	fldcw  WORD PTR [rbp-0x1a]
    2ed2:	df 6d d0             	fild   QWORD PTR [rbp-0x30]
    2ed5:	db 6d 10             	fld    TBYTE PTR [rbp+0x10]
    2ed8:	de e1                	fsubp  st(1),st
    2eda:	db 7d 10             	fstp   TBYTE PTR [rbp+0x10]
    2edd:	48 8b 45 f0          	mov    rax,QWORD PTR [rbp-0x10]
    2ee1:	0f b6 00             	movzx  eax,BYTE PTR [rax]
    2ee4:	3c 2d                	cmp    al,0x2d
    2ee6:	75 08                	jne    2ef0 <pfdtostr+0xb0>
    2ee8:	db 6d 10             	fld    TBYTE PTR [rbp+0x10]
    2eeb:	d9 e0                	fchs   
    2eed:	db 7d 10             	fstp   TBYTE PTR [rbp+0x10]
    2ef0:	48 8b 55 f0          	mov    rdx,QWORD PTR [rbp-0x10]
    2ef4:	48 8b 45 f8          	mov    rax,QWORD PTR [rbp-0x8]
    2ef8:	48 89 d6             	mov    rsi,rdx
    2efb:	48 89 c7             	mov    rdi,rax
    2efe:	e8 d8 11 00 00       	call   40db <ft_strcpy>
    2f03:	48 8b 45 f0          	mov    rax,QWORD PTR [rbp-0x10]
    2f07:	48 89 c7             	mov    rdi,rax
    2f0a:	e8 f1 de ff ff       	call   e00 <free@plt>
    2f0f:	83 7d ec 00          	cmp    DWORD PTR [rbp-0x14],0x0
    2f13:	7f 06                	jg     2f1b <pfdtostr+0xdb>
    2f15:	83 7d e8 00          	cmp    DWORD PTR [rbp-0x18],0x0
    2f19:	74 13                	je     2f2e <pfdtostr+0xee>
    2f1b:	48 8b 45 f8          	mov    rax,QWORD PTR [rbp-0x8]
    2f1f:	48 8d 35 99 1c 00 00 	lea    rsi,[rip+0x1c99]        # 4bbf <_IO_stdin_used+0x8f>
    2f26:	48 89 c7             	mov    rdi,rax
    2f29:	e8 e6 11 00 00       	call   4114 <ft_strcat>
    2f2e:	8b 45 ec             	mov    eax,DWORD PTR [rbp-0x14]
    2f31:	48 98                	cdqe   
    2f33:	48 89 c6             	mov    rsi,rax
    2f36:	bf 0a 00 00 00       	mov    edi,0xa
    2f3b:	e8 da 16 00 00       	call   461a <ft_pow>
    2f40:	48 89 45 d0          	mov    QWORD PTR [rbp-0x30],rax
    2f44:	df 6d d0             	fild   QWORD PTR [rbp-0x30]
    2f47:	db 6d 10             	fld    TBYTE PTR [rbp+0x10]
    2f4a:	de c9                	fmulp  st(1),st
    2f4c:	db 7d 10             	fstp   TBYTE PTR [rbp+0x10]
    2f4f:	db 6d 10             	fld    TBYTE PTR [rbp+0x10]
    2f52:	d9 7d e6             	fnstcw WORD PTR [rbp-0x1a]
    2f55:	0f b7 45 e6          	movzx  eax,WORD PTR [rbp-0x1a]
    2f59:	80 cc 0c             	or     ah,0xc
    2f5c:	66 89 45 e4          	mov    WORD PTR [rbp-0x1c],ax
    2f60:	d9 6d e4             	fldcw  WORD PTR [rbp-0x1c]
    2f63:	df 7d d8             	fistp  QWORD PTR [rbp-0x28]
    2f66:	d9 6d e6             	fldcw  WORD PTR [rbp-0x1a]
    2f69:	48 8b 45 d8          	mov    rax,QWORD PTR [rbp-0x28]
    2f6d:	be 0a 00 00 00       	mov    esi,0xa
    2f72:	48 89 c7             	mov    rdi,rax
    2f75:	e8 72 14 00 00       	call   43ec <ft_itostr>
    2f7a:	48 89 45 f0          	mov    QWORD PTR [rbp-0x10],rax
    2f7e:	48 83 7d f0 00       	cmp    QWORD PTR [rbp-0x10],0x0
    2f83:	75 07                	jne    2f8c <pfdtostr+0x14c>
    2f85:	b8 00 00 00 00       	mov    eax,0x0
    2f8a:	eb 23                	jmp    2faf <pfdtostr+0x16f>
    2f8c:	48 8b 55 f0          	mov    rdx,QWORD PTR [rbp-0x10]
    2f90:	48 8b 45 f8          	mov    rax,QWORD PTR [rbp-0x8]
    2f94:	48 89 d6             	mov    rsi,rdx
    2f97:	48 89 c7             	mov    rdi,rax
    2f9a:	e8 75 11 00 00       	call   4114 <ft_strcat>
    2f9f:	48 8b 45 f0          	mov    rax,QWORD PTR [rbp-0x10]
    2fa3:	48 89 c7             	mov    rdi,rax
    2fa6:	e8 55 de ff ff       	call   e00 <free@plt>
    2fab:	48 8b 45 f8          	mov    rax,QWORD PTR [rbp-0x8]
    2faf:	c9                   	leave  
    2fb0:	c3                   	ret    

0000000000002fb1 <pfitostr>:
    2fb1:	55                   	push   rbp
    2fb2:	48 89 e5             	mov    rbp,rsp
    2fb5:	48 83 ec 30          	sub    rsp,0x30
    2fb9:	48 89 7d e8          	mov    QWORD PTR [rbp-0x18],rdi
    2fbd:	89 75 e4             	mov    DWORD PTR [rbp-0x1c],esi
    2fc0:	48 89 55 d8          	mov    QWORD PTR [rbp-0x28],rdx
    2fc4:	48 8b 45 e8          	mov    rax,QWORD PTR [rbp-0x18]
    2fc8:	48 c1 e8 3f          	shr    rax,0x3f
    2fcc:	0f b6 c0             	movzx  eax,al
    2fcf:	89 45 f8             	mov    DWORD PTR [rbp-0x8],eax
    2fd2:	8b 55 e4             	mov    edx,DWORD PTR [rbp-0x1c]
    2fd5:	48 8b 45 e8          	mov    rax,QWORD PTR [rbp-0x18]
    2fd9:	89 d6                	mov    esi,edx
    2fdb:	48 89 c7             	mov    rdi,rax
    2fde:	e8 e5 16 00 00       	call   46c8 <ft_intlen>
    2fe3:	0f be c0             	movsx  eax,al
    2fe6:	83 7d f8 00          	cmp    DWORD PTR [rbp-0x8],0x0
    2fea:	74 07                	je     2ff3 <pfitostr+0x42>
    2fec:	ba ff ff ff ff       	mov    edx,0xffffffff
    2ff1:	eb 05                	jmp    2ff8 <pfitostr+0x47>
    2ff3:	ba 00 00 00 00       	mov    edx,0x0
    2ff8:	01 d0                	add    eax,edx
    2ffa:	89 45 fc             	mov    DWORD PTR [rbp-0x4],eax
    2ffd:	48 8b 45 d8          	mov    rax,QWORD PTR [rbp-0x28]
    3001:	8b 40 0c             	mov    eax,DWORD PTR [rax+0xc]
    3004:	3b 45 fc             	cmp    eax,DWORD PTR [rbp-0x4]
    3007:	7e 0c                	jle    3015 <pfitostr+0x64>
    3009:	48 8b 45 d8          	mov    rax,QWORD PTR [rbp-0x28]
    300d:	8b 40 0c             	mov    eax,DWORD PTR [rax+0xc]
    3010:	2b 45 fc             	sub    eax,DWORD PTR [rbp-0x4]
    3013:	eb 05                	jmp    301a <pfitostr+0x69>
    3015:	b8 00 00 00 00       	mov    eax,0x0
    301a:	01 45 fc             	add    DWORD PTR [rbp-0x4],eax
    301d:	8b 45 fc             	mov    eax,DWORD PTR [rbp-0x4]
    3020:	83 c0 01             	add    eax,0x1
    3023:	48 98                	cdqe   
    3025:	48 89 c7             	mov    rdi,rax
    3028:	e8 ae 12 00 00       	call   42db <ft_strnew>
    302d:	48 89 45 f0          	mov    QWORD PTR [rbp-0x10],rax
    3031:	48 83 7d f0 00       	cmp    QWORD PTR [rbp-0x10],0x0
    3036:	75 6b                	jne    30a3 <pfitostr+0xf2>
    3038:	b8 00 00 00 00       	mov    eax,0x0
    303d:	e9 db 00 00 00       	jmp    311d <pfitostr+0x16c>
    3042:	83 6d fc 01          	sub    DWORD PTR [rbp-0x4],0x1
    3046:	8b 45 fc             	mov    eax,DWORD PTR [rbp-0x4]
    3049:	48 63 d0             	movsxd rdx,eax
    304c:	48 8b 45 f0          	mov    rax,QWORD PTR [rbp-0x10]
    3050:	48 8d 0c 02          	lea    rcx,[rdx+rax*1]
    3054:	83 7d f8 00          	cmp    DWORD PTR [rbp-0x8],0x0
    3058:	74 1a                	je     3074 <pfitostr+0xc3>
    305a:	8b 45 e4             	mov    eax,DWORD PTR [rbp-0x1c]
    305d:	48 63 f0             	movsxd rsi,eax
    3060:	48 8b 45 e8          	mov    rax,QWORD PTR [rbp-0x18]
    3064:	48 99                	cqo    
    3066:	48 f7 fe             	idiv   rsi
    3069:	48 89 d0             	mov    rax,rdx
    306c:	48 f7 d8             	neg    rax
    306f:	48 89 c2             	mov    rdx,rax
    3072:	eb 0f                	jmp    3083 <pfitostr+0xd2>
    3074:	8b 45 e4             	mov    eax,DWORD PTR [rbp-0x1c]
    3077:	48 63 f0             	movsxd rsi,eax
    307a:	48 8b 45 e8          	mov    rax,QWORD PTR [rbp-0x18]
    307e:	48 99                	cqo    
    3080:	48 f7 fe             	idiv   rsi
    3083:	48 8d 05 3d 1b 00 00 	lea    rax,[rip+0x1b3d]        # 4bc7 <_IO_stdin_used+0x97>
    308a:	0f b6 04 02          	movzx  eax,BYTE PTR [rdx+rax*1]
    308e:	88 01                	mov    BYTE PTR [rcx],al
    3090:	8b 45 e4             	mov    eax,DWORD PTR [rbp-0x1c]
    3093:	48 63 c8             	movsxd rcx,eax
    3096:	48 8b 45 e8          	mov    rax,QWORD PTR [rbp-0x18]
    309a:	48 99                	cqo    
    309c:	48 f7 f9             	idiv   rcx
    309f:	48 89 45 e8          	mov    QWORD PTR [rbp-0x18],rax
    30a3:	83 7d fc 00          	cmp    DWORD PTR [rbp-0x4],0x0
    30a7:	75 99                	jne    3042 <pfitostr+0x91>
    30a9:	83 7d f8 00          	cmp    DWORD PTR [rbp-0x8],0x0
    30ad:	74 11                	je     30c0 <pfitostr+0x10f>
    30af:	48 8b 45 d8          	mov    rax,QWORD PTR [rbp-0x28]
    30b3:	48 8d 15 07 1b 00 00 	lea    rdx,[rip+0x1b07]        # 4bc1 <_IO_stdin_used+0x91>
    30ba:	48 89 50 20          	mov    QWORD PTR [rax+0x20],rdx
    30be:	eb 3c                	jmp    30fc <pfitostr+0x14b>
    30c0:	48 8b 45 d8          	mov    rax,QWORD PTR [rbp-0x28]
    30c4:	8b 40 04             	mov    eax,DWORD PTR [rax+0x4]
    30c7:	83 e0 04             	and    eax,0x4
    30ca:	85 c0                	test   eax,eax
    30cc:	74 11                	je     30df <pfitostr+0x12e>
    30ce:	48 8b 45 d8          	mov    rax,QWORD PTR [rbp-0x28]
    30d2:	48 8d 15 ea 1a 00 00 	lea    rdx,[rip+0x1aea]        # 4bc3 <_IO_stdin_used+0x93>
    30d9:	48 89 50 20          	mov    QWORD PTR [rax+0x20],rdx
    30dd:	eb 1d                	jmp    30fc <pfitostr+0x14b>
    30df:	48 8b 45 d8          	mov    rax,QWORD PTR [rbp-0x28]
    30e3:	8b 40 04             	mov    eax,DWORD PTR [rax+0x4]
    30e6:	83 e0 08             	and    eax,0x8
    30e9:	85 c0                	test   eax,eax
    30eb:	74 0f                	je     30fc <pfitostr+0x14b>
    30ed:	48 8b 45 d8          	mov    rax,QWORD PTR [rbp-0x28]
    30f1:	48 8d 15 cd 1a 00 00 	lea    rdx,[rip+0x1acd]        # 4bc5 <_IO_stdin_used+0x95>
    30f8:	48 89 50 20          	mov    QWORD PTR [rax+0x20],rdx
    30fc:	48 8b 45 d8          	mov    rax,QWORD PTR [rbp-0x28]
    3100:	8b 40 0c             	mov    eax,DWORD PTR [rax+0xc]
    3103:	85 c0                	test   eax,eax
    3105:	75 12                	jne    3119 <pfitostr+0x168>
    3107:	48 8b 45 f0          	mov    rax,QWORD PTR [rbp-0x10]
    310b:	0f b6 00             	movzx  eax,BYTE PTR [rax]
    310e:	3c 30                	cmp    al,0x30
    3110:	75 07                	jne    3119 <pfitostr+0x168>
    3112:	48 8b 45 f0          	mov    rax,QWORD PTR [rbp-0x10]
    3116:	c6 00 00             	mov    BYTE PTR [rax],0x0
    3119:	48 8b 45 f0          	mov    rax,QWORD PTR [rbp-0x10]
    311d:	c9                   	leave  
    311e:	c3                   	ret    

000000000000311f <pfutostr>:
    311f:	55                   	push   rbp
    3120:	48 89 e5             	mov    rbp,rsp
    3123:	48 83 ec 20          	sub    rsp,0x20
    3127:	48 89 7d e8          	mov    QWORD PTR [rbp-0x18],rdi
    312b:	89 75 e4             	mov    DWORD PTR [rbp-0x1c],esi
    312e:	89 55 e0             	mov    DWORD PTR [rbp-0x20],edx
    3131:	8b 55 e4             	mov    edx,DWORD PTR [rbp-0x1c]
    3134:	48 8b 45 e8          	mov    rax,QWORD PTR [rbp-0x18]
    3138:	89 d6                	mov    esi,edx
    313a:	48 89 c7             	mov    rdi,rax
    313d:	e8 da 15 00 00       	call   471c <ft_uintlen>
    3142:	0f be c0             	movsx  eax,al
    3145:	89 45 fc             	mov    DWORD PTR [rbp-0x4],eax
    3148:	8b 45 e0             	mov    eax,DWORD PTR [rbp-0x20]
    314b:	3b 45 fc             	cmp    eax,DWORD PTR [rbp-0x4]
    314e:	7e 08                	jle    3158 <pfutostr+0x39>
    3150:	8b 45 e0             	mov    eax,DWORD PTR [rbp-0x20]
    3153:	2b 45 fc             	sub    eax,DWORD PTR [rbp-0x4]
    3156:	eb 05                	jmp    315d <pfutostr+0x3e>
    3158:	b8 00 00 00 00       	mov    eax,0x0
    315d:	01 45 fc             	add    DWORD PTR [rbp-0x4],eax
    3160:	8b 45 fc             	mov    eax,DWORD PTR [rbp-0x4]
    3163:	83 c0 01             	add    eax,0x1
    3166:	48 98                	cdqe   
    3168:	48 89 c7             	mov    rdi,rax
    316b:	e8 6b 11 00 00       	call   42db <ft_strnew>
    3170:	48 89 45 f0          	mov    QWORD PTR [rbp-0x10],rax
    3174:	48 83 7d f0 00       	cmp    QWORD PTR [rbp-0x10],0x0
    3179:	75 4e                	jne    31c9 <pfutostr+0xaa>
    317b:	b8 00 00 00 00       	mov    eax,0x0
    3180:	eb 51                	jmp    31d3 <pfutostr+0xb4>
    3182:	83 6d fc 01          	sub    DWORD PTR [rbp-0x4],0x1
    3186:	8b 45 fc             	mov    eax,DWORD PTR [rbp-0x4]
    3189:	48 63 d0             	movsxd rdx,eax
    318c:	48 8b 45 f0          	mov    rax,QWORD PTR [rbp-0x10]
    3190:	48 8d 0c 02          	lea    rcx,[rdx+rax*1]
    3194:	8b 45 e4             	mov    eax,DWORD PTR [rbp-0x1c]
    3197:	48 63 f0             	movsxd rsi,eax
    319a:	48 8b 45 e8          	mov    rax,QWORD PTR [rbp-0x18]
    319e:	ba 00 00 00 00       	mov    edx,0x0
    31a3:	48 f7 f6             	div    rsi
    31a6:	48 8d 05 1a 1a 00 00 	lea    rax,[rip+0x1a1a]        # 4bc7 <_IO_stdin_used+0x97>
    31ad:	0f b6 04 02          	movzx  eax,BYTE PTR [rdx+rax*1]
    31b1:	88 01                	mov    BYTE PTR [rcx],al
    31b3:	8b 45 e4             	mov    eax,DWORD PTR [rbp-0x1c]
    31b6:	48 63 c8             	movsxd rcx,eax
    31b9:	48 8b 45 e8          	mov    rax,QWORD PTR [rbp-0x18]
    31bd:	ba 00 00 00 00       	mov    edx,0x0
    31c2:	48 f7 f1             	div    rcx
    31c5:	48 89 45 e8          	mov    QWORD PTR [rbp-0x18],rax
    31c9:	83 7d fc 00          	cmp    DWORD PTR [rbp-0x4],0x0
    31cd:	75 b3                	jne    3182 <pfutostr+0x63>
    31cf:	48 8b 45 f0          	mov    rax,QWORD PTR [rbp-0x10]
    31d3:	c9                   	leave  
    31d4:	c3                   	ret    

00000000000031d5 <pfsubstr>:
    31d5:	55                   	push   rbp
    31d6:	48 89 e5             	mov    rbp,rsp
    31d9:	48 83 ec 30          	sub    rsp,0x30
    31dd:	48 89 7d d8          	mov    QWORD PTR [rbp-0x28],rdi
    31e1:	48 89 75 d0          	mov    QWORD PTR [rbp-0x30],rsi
    31e5:	48 8b 45 d8          	mov    rax,QWORD PTR [rbp-0x28]
    31e9:	48 8b 00             	mov    rax,QWORD PTR [rax]
    31ec:	48 89 45 f0          	mov    QWORD PTR [rbp-0x10],rax
    31f0:	eb 12                	jmp    3204 <pfsubstr+0x2f>
    31f2:	48 8b 45 d8          	mov    rax,QWORD PTR [rbp-0x28]
    31f6:	48 8b 00             	mov    rax,QWORD PTR [rax]
    31f9:	48 8d 50 01          	lea    rdx,[rax+0x1]
    31fd:	48 8b 45 d8          	mov    rax,QWORD PTR [rbp-0x28]
    3201:	48 89 10             	mov    QWORD PTR [rax],rdx
    3204:	48 8b 45 d8          	mov    rax,QWORD PTR [rbp-0x28]
    3208:	48 8b 00             	mov    rax,QWORD PTR [rax]
    320b:	0f b6 00             	movzx  eax,BYTE PTR [rax]
    320e:	84 c0                	test   al,al
    3210:	74 0e                	je     3220 <pfsubstr+0x4b>
    3212:	48 8b 45 d8          	mov    rax,QWORD PTR [rbp-0x28]
    3216:	48 8b 00             	mov    rax,QWORD PTR [rax]
    3219:	0f b6 00             	movzx  eax,BYTE PTR [rax]
    321c:	3c 7d                	cmp    al,0x7d
    321e:	75 d2                	jne    31f2 <pfsubstr+0x1d>
    3220:	48 8b 45 d8          	mov    rax,QWORD PTR [rbp-0x28]
    3224:	48 8b 00             	mov    rax,QWORD PTR [rax]
    3227:	0f b6 00             	movzx  eax,BYTE PTR [rax]
    322a:	84 c0                	test   al,al
    322c:	74 39                	je     3267 <pfsubstr+0x92>
    322e:	48 8b 45 d8          	mov    rax,QWORD PTR [rbp-0x28]
    3232:	48 8b 00             	mov    rax,QWORD PTR [rax]
    3235:	48 89 c2             	mov    rdx,rax
    3238:	48 8b 45 f0          	mov    rax,QWORD PTR [rbp-0x10]
    323c:	48 29 c2             	sub    rdx,rax
    323f:	48 89 d0             	mov    rax,rdx
    3242:	48 83 e8 01          	sub    rax,0x1
    3246:	48 89 c2             	mov    rdx,rax
    3249:	48 8b 45 f0          	mov    rax,QWORD PTR [rbp-0x10]
    324d:	48 83 c0 01          	add    rax,0x1
    3251:	48 89 d6             	mov    rsi,rdx
    3254:	48 89 c7             	mov    rdi,rax
    3257:	e8 22 0e 00 00       	call   407e <ft_strndup>
    325c:	48 89 45 e8          	mov    QWORD PTR [rbp-0x18],rax
    3260:	48 83 7d e8 00       	cmp    QWORD PTR [rbp-0x18],0x0
    3265:	75 0a                	jne    3271 <pfsubstr+0x9c>
    3267:	b8 00 00 00 00       	mov    eax,0x0
    326c:	e9 28 01 00 00       	jmp    3399 <pfsubstr+0x1c4>
    3271:	c7 45 fc ff ff ff ff 	mov    DWORD PTR [rbp-0x4],0xffffffff
    3278:	eb 2a                	jmp    32a4 <pfsubstr+0xcf>
    327a:	8b 45 fc             	mov    eax,DWORD PTR [rbp-0x4]
    327d:	48 98                	cdqe   
    327f:	48 c1 e0 04          	shl    rax,0x4
    3283:	48 89 c2             	mov    rdx,rax
    3286:	48 8d 05 53 33 20 00 	lea    rax,[rip+0x203353]        # 2065e0 <g_subs>
    328d:	48 8b 04 02          	mov    rax,QWORD PTR [rdx+rax*1]
    3291:	48 8b 55 e8          	mov    rdx,QWORD PTR [rbp-0x18]
    3295:	48 89 d6             	mov    rsi,rdx
    3298:	48 89 c7             	mov    rdi,rax
    329b:	e8 5e 10 00 00       	call   42fe <ft_strequ>
    32a0:	85 c0                	test   eax,eax
    32a2:	75 22                	jne    32c6 <pfsubstr+0xf1>
    32a4:	83 45 fc 01          	add    DWORD PTR [rbp-0x4],0x1
    32a8:	8b 45 fc             	mov    eax,DWORD PTR [rbp-0x4]
    32ab:	48 98                	cdqe   
    32ad:	48 c1 e0 04          	shl    rax,0x4
    32b1:	48 89 c2             	mov    rdx,rax
    32b4:	48 8d 05 25 33 20 00 	lea    rax,[rip+0x203325]        # 2065e0 <g_subs>
    32bb:	48 8b 04 02          	mov    rax,QWORD PTR [rdx+rax*1]
    32bf:	48 85 c0             	test   rax,rax
    32c2:	75 b6                	jne    327a <pfsubstr+0xa5>
    32c4:	eb 01                	jmp    32c7 <pfsubstr+0xf2>
    32c6:	90                   	nop
    32c7:	48 8b 45 e8          	mov    rax,QWORD PTR [rbp-0x18]
    32cb:	48 89 c7             	mov    rdi,rax
    32ce:	e8 2d db ff ff       	call   e00 <free@plt>
    32d3:	8b 45 fc             	mov    eax,DWORD PTR [rbp-0x4]
    32d6:	48 98                	cdqe   
    32d8:	48 c1 e0 04          	shl    rax,0x4
    32dc:	48 89 c2             	mov    rdx,rax
    32df:	48 8d 05 fa 32 20 00 	lea    rax,[rip+0x2032fa]        # 2065e0 <g_subs>
    32e6:	48 8b 04 02          	mov    rax,QWORD PTR [rdx+rax*1]
    32ea:	48 85 c0             	test   rax,rax
    32ed:	75 4d                	jne    333c <pfsubstr+0x167>
    32ef:	48 8b 45 d8          	mov    rax,QWORD PTR [rbp-0x28]
    32f3:	48 8b 00             	mov    rax,QWORD PTR [rax]
    32f6:	48 8d 50 01          	lea    rdx,[rax+0x1]
    32fa:	48 8b 45 d8          	mov    rax,QWORD PTR [rbp-0x28]
    32fe:	48 89 10             	mov    QWORD PTR [rax],rdx
    3301:	48 8b 45 d8          	mov    rax,QWORD PTR [rbp-0x28]
    3305:	48 8b 00             	mov    rax,QWORD PTR [rax]
    3308:	48 85 c0             	test   rax,rax
    330b:	74 2f                	je     333c <pfsubstr+0x167>
    330d:	48 8b 45 d0          	mov    rax,QWORD PTR [rbp-0x30]
    3311:	48 8d 15 1e 1b 00 00 	lea    rdx,[rip+0x1b1e]        # 4e36 <_IO_stdin_used+0x306>
    3318:	48 89 50 28          	mov    QWORD PTR [rax+0x28],rdx
    331c:	48 8b 45 d0          	mov    rax,QWORD PTR [rbp-0x30]
    3320:	c7 40 30 01 00 00 00 	mov    DWORD PTR [rax+0x30],0x1
    3327:	48 8b 45 f0          	mov    rax,QWORD PTR [rbp-0x10]
    332b:	48 8d 50 01          	lea    rdx,[rax+0x1]
    332f:	48 8b 45 d8          	mov    rax,QWORD PTR [rbp-0x28]
    3333:	48 89 10             	mov    QWORD PTR [rax],rdx
    3336:	48 8b 45 d0          	mov    rax,QWORD PTR [rbp-0x30]
    333a:	eb 5d                	jmp    3399 <pfsubstr+0x1c4>
    333c:	8b 45 fc             	mov    eax,DWORD PTR [rbp-0x4]
    333f:	48 98                	cdqe   
    3341:	48 c1 e0 04          	shl    rax,0x4
    3345:	48 89 c2             	mov    rdx,rax
    3348:	48 8d 05 99 32 20 00 	lea    rax,[rip+0x203299]        # 2065e8 <g_subs+0x8>
    334f:	48 8b 04 02          	mov    rax,QWORD PTR [rdx+rax*1]
    3353:	48 89 c7             	mov    rdi,rax
    3356:	e8 2e 0c 00 00       	call   3f89 <ft_strlen>
    335b:	89 c2                	mov    edx,eax
    335d:	48 8b 45 d0          	mov    rax,QWORD PTR [rbp-0x30]
    3361:	89 50 30             	mov    DWORD PTR [rax+0x30],edx
    3364:	8b 45 fc             	mov    eax,DWORD PTR [rbp-0x4]
    3367:	48 98                	cdqe   
    3369:	48 c1 e0 04          	shl    rax,0x4
    336d:	48 89 c2             	mov    rdx,rax
    3370:	48 8d 05 71 32 20 00 	lea    rax,[rip+0x203271]        # 2065e8 <g_subs+0x8>
    3377:	48 8b 14 02          	mov    rdx,QWORD PTR [rdx+rax*1]
    337b:	48 8b 45 d0          	mov    rax,QWORD PTR [rbp-0x30]
    337f:	48 89 50 28          	mov    QWORD PTR [rax+0x28],rdx
    3383:	48 8b 45 d8          	mov    rax,QWORD PTR [rbp-0x28]
    3387:	48 8b 00             	mov    rax,QWORD PTR [rax]
    338a:	48 8d 50 01          	lea    rdx,[rax+0x1]
    338e:	48 8b 45 d8          	mov    rax,QWORD PTR [rbp-0x28]
    3392:	48 89 10             	mov    QWORD PTR [rax],rdx
    3395:	48 8b 45 d0          	mov    rax,QWORD PTR [rbp-0x30]
    3399:	c9                   	leave  
    339a:	c3                   	ret    

000000000000339b <pfhandlechar>:
    339b:	55                   	push   rbp
    339c:	48 89 e5             	mov    rbp,rsp
    339f:	48 83 ec 10          	sub    rsp,0x10
    33a3:	48 89 7d f8          	mov    QWORD PTR [rbp-0x8],rdi
    33a7:	48 89 75 f0          	mov    QWORD PTR [rbp-0x10],rsi
    33ab:	48 8b 45 f8          	mov    rax,QWORD PTR [rbp-0x8]
    33af:	be 01 00 00 00       	mov    esi,0x1
    33b4:	48 89 c7             	mov    rdi,rax
    33b7:	e8 c2 0c 00 00       	call   407e <ft_strndup>
    33bc:	48 89 c2             	mov    rdx,rax
    33bf:	48 8b 45 f0          	mov    rax,QWORD PTR [rbp-0x10]
    33c3:	48 89 50 28          	mov    QWORD PTR [rax+0x28],rdx
    33c7:	48 8b 45 f0          	mov    rax,QWORD PTR [rbp-0x10]
    33cb:	c7 40 30 01 00 00 00 	mov    DWORD PTR [rax+0x30],0x1
    33d2:	90                   	nop
    33d3:	c9                   	leave  
    33d4:	c3                   	ret    

00000000000033d5 <pfhandlestr>:
    33d5:	55                   	push   rbp
    33d6:	48 89 e5             	mov    rbp,rsp
    33d9:	53                   	push   rbx
    33da:	48 83 ec 18          	sub    rsp,0x18
    33de:	48 89 7d e8          	mov    QWORD PTR [rbp-0x18],rdi
    33e2:	48 89 75 e0          	mov    QWORD PTR [rbp-0x20],rsi
    33e6:	48 8b 45 e8          	mov    rax,QWORD PTR [rbp-0x18]
    33ea:	48 8b 00             	mov    rax,QWORD PTR [rax]
    33ed:	48 85 c0             	test   rax,rax
    33f0:	75 34                	jne    3426 <pfhandlestr+0x51>
    33f2:	48 8b 45 e0          	mov    rax,QWORD PTR [rbp-0x20]
    33f6:	8b 40 0c             	mov    eax,DWORD PTR [rax+0xc]
    33f9:	83 f8 ff             	cmp    eax,0xffffffff
    33fc:	74 09                	je     3407 <pfhandlestr+0x32>
    33fe:	48 8d 05 33 1a 00 00 	lea    rax,[rip+0x1a33]        # 4e38 <_IO_stdin_used+0x308>
    3405:	eb 07                	jmp    340e <pfhandlestr+0x39>
    3407:	48 8d 05 2b 1a 00 00 	lea    rax,[rip+0x1a2b]        # 4e39 <_IO_stdin_used+0x309>
    340e:	48 89 c7             	mov    rdi,rax
    3411:	e8 0c 0c 00 00       	call   4022 <ft_strdup>
    3416:	48 89 c2             	mov    rdx,rax
    3419:	48 8b 45 e0          	mov    rax,QWORD PTR [rbp-0x20]
    341d:	48 89 50 28          	mov    QWORD PTR [rax+0x28],rdx
    3421:	e9 9b 00 00 00       	jmp    34c1 <pfhandlestr+0xec>
    3426:	48 8b 45 e0          	mov    rax,QWORD PTR [rbp-0x20]
    342a:	8b 40 0c             	mov    eax,DWORD PTR [rax+0xc]
    342d:	85 c0                	test   eax,eax
    342f:	78 73                	js     34a4 <pfhandlestr+0xcf>
    3431:	48 8b 45 e0          	mov    rax,QWORD PTR [rbp-0x20]
    3435:	8b 40 0c             	mov    eax,DWORD PTR [rax+0xc]
    3438:	48 63 d0             	movsxd rdx,eax
    343b:	48 8b 45 e8          	mov    rax,QWORD PTR [rbp-0x18]
    343f:	48 8b 00             	mov    rax,QWORD PTR [rax]
    3442:	48 89 d6             	mov    rsi,rdx
    3445:	48 89 c7             	mov    rdi,rax
    3448:	e8 31 0c 00 00       	call   407e <ft_strndup>
    344d:	48 89 c2             	mov    rdx,rax
    3450:	48 8b 45 e0          	mov    rax,QWORD PTR [rbp-0x20]
    3454:	48 89 50 28          	mov    QWORD PTR [rax+0x28],rdx
    3458:	48 8b 45 e0          	mov    rax,QWORD PTR [rbp-0x20]
    345c:	8b 58 0c             	mov    ebx,DWORD PTR [rax+0xc]
    345f:	48 8b 45 e8          	mov    rax,QWORD PTR [rbp-0x18]
    3463:	48 8b 00             	mov    rax,QWORD PTR [rax]
    3466:	48 89 c7             	mov    rdi,rax
    3469:	e8 1b 0b 00 00       	call   3f89 <ft_strlen>
    346e:	39 c3                	cmp    ebx,eax
    3470:	7d 4e                	jge    34c0 <pfhandlestr+0xeb>
    3472:	48 8b 45 e0          	mov    rax,QWORD PTR [rbp-0x20]
    3476:	8b 40 04             	mov    eax,DWORD PTR [rax+0x4]
    3479:	83 e0 01             	and    eax,0x1
    347c:	85 c0                	test   eax,eax
    347e:	74 40                	je     34c0 <pfhandlestr+0xeb>
    3480:	48 8b 45 e0          	mov    rax,QWORD PTR [rbp-0x20]
    3484:	48 8b 40 28          	mov    rax,QWORD PTR [rax+0x28]
    3488:	48 8d 35 b1 19 00 00 	lea    rsi,[rip+0x19b1]        # 4e40 <_IO_stdin_used+0x310>
    348f:	48 89 c7             	mov    rdi,rax
    3492:	e8 46 10 00 00       	call   44dd <ft_strjoinfree>
    3497:	48 89 c2             	mov    rdx,rax
    349a:	48 8b 45 e0          	mov    rax,QWORD PTR [rbp-0x20]
    349e:	48 89 50 28          	mov    QWORD PTR [rax+0x28],rdx
    34a2:	eb 1c                	jmp    34c0 <pfhandlestr+0xeb>
    34a4:	48 8b 45 e8          	mov    rax,QWORD PTR [rbp-0x18]
    34a8:	48 8b 00             	mov    rax,QWORD PTR [rax]
    34ab:	48 89 c7             	mov    rdi,rax
    34ae:	e8 6f 0b 00 00       	call   4022 <ft_strdup>
    34b3:	48 89 c2             	mov    rdx,rax
    34b6:	48 8b 45 e0          	mov    rax,QWORD PTR [rbp-0x20]
    34ba:	48 89 50 28          	mov    QWORD PTR [rax+0x28],rdx
    34be:	eb 01                	jmp    34c1 <pfhandlestr+0xec>
    34c0:	90                   	nop
    34c1:	48 83 c4 18          	add    rsp,0x18
    34c5:	5b                   	pop    rbx
    34c6:	5d                   	pop    rbp
    34c7:	c3                   	ret    

00000000000034c8 <pfhandleint>:
    34c8:	55                   	push   rbp
    34c9:	48 89 e5             	mov    rbp,rsp
    34cc:	48 83 ec 10          	sub    rsp,0x10
    34d0:	48 89 7d f8          	mov    QWORD PTR [rbp-0x8],rdi
    34d4:	48 89 75 f0          	mov    QWORD PTR [rbp-0x10],rsi
    34d8:	48 8b 45 f8          	mov    rax,QWORD PTR [rbp-0x8]
    34dc:	48 8b 00             	mov    rax,QWORD PTR [rax]
    34df:	48 89 c1             	mov    rcx,rax
    34e2:	48 8b 45 f0          	mov    rax,QWORD PTR [rbp-0x10]
    34e6:	48 89 c2             	mov    rdx,rax
    34e9:	be 0a 00 00 00       	mov    esi,0xa
    34ee:	48 89 cf             	mov    rdi,rcx
    34f1:	e8 bb fa ff ff       	call   2fb1 <pfitostr>
    34f6:	48 89 c2             	mov    rdx,rax
    34f9:	48 8b 45 f0          	mov    rax,QWORD PTR [rbp-0x10]
    34fd:	48 89 50 28          	mov    QWORD PTR [rax+0x28],rdx
    3501:	90                   	nop
    3502:	c9                   	leave  
    3503:	c3                   	ret    

0000000000003504 <pfhandleuint>:
    3504:	55                   	push   rbp
    3505:	48 89 e5             	mov    rbp,rsp
    3508:	48 83 ec 20          	sub    rsp,0x20
    350c:	48 89 7d e8          	mov    QWORD PTR [rbp-0x18],rdi
    3510:	48 89 75 e0          	mov    QWORD PTR [rbp-0x20],rsi
    3514:	48 8b 45 e8          	mov    rax,QWORD PTR [rbp-0x18]
    3518:	48 8b 00             	mov    rax,QWORD PTR [rax]
    351b:	48 89 45 f8          	mov    QWORD PTR [rbp-0x8],rax
    351f:	48 83 7d f8 00       	cmp    QWORD PTR [rbp-0x8],0x0
    3524:	75 24                	jne    354a <pfhandleuint+0x46>
    3526:	48 8b 45 e0          	mov    rax,QWORD PTR [rbp-0x20]
    352a:	8b 40 0c             	mov    eax,DWORD PTR [rax+0xc]
    352d:	85 c0                	test   eax,eax
    352f:	75 19                	jne    354a <pfhandleuint+0x46>
    3531:	48 8d 3d 0b 19 00 00 	lea    rdi,[rip+0x190b]        # 4e43 <_IO_stdin_used+0x313>
    3538:	e8 e5 0a 00 00       	call   4022 <ft_strdup>
    353d:	48 89 c2             	mov    rdx,rax
    3540:	48 8b 45 e0          	mov    rax,QWORD PTR [rbp-0x20]
    3544:	48 89 50 28          	mov    QWORD PTR [rax+0x28],rdx
    3548:	eb 23                	jmp    356d <pfhandleuint+0x69>
    354a:	48 8b 45 e0          	mov    rax,QWORD PTR [rbp-0x20]
    354e:	8b 50 0c             	mov    edx,DWORD PTR [rax+0xc]
    3551:	48 8b 45 f8          	mov    rax,QWORD PTR [rbp-0x8]
    3555:	be 0a 00 00 00       	mov    esi,0xa
    355a:	48 89 c7             	mov    rdi,rax
    355d:	e8 bd fb ff ff       	call   311f <pfutostr>
    3562:	48 89 c2             	mov    rdx,rax
    3565:	48 8b 45 e0          	mov    rax,QWORD PTR [rbp-0x20]
    3569:	48 89 50 28          	mov    QWORD PTR [rax+0x28],rdx
    356d:	c9                   	leave  
    356e:	c3                   	ret    

000000000000356f <pfhandleptr>:
    356f:	55                   	push   rbp
    3570:	48 89 e5             	mov    rbp,rsp
    3573:	48 83 ec 20          	sub    rsp,0x20
    3577:	48 89 7d e8          	mov    QWORD PTR [rbp-0x18],rdi
    357b:	48 89 75 e0          	mov    QWORD PTR [rbp-0x20],rsi
    357f:	48 8b 45 e8          	mov    rax,QWORD PTR [rbp-0x18]
    3583:	48 8b 00             	mov    rax,QWORD PTR [rax]
    3586:	48 85 c0             	test   rax,rax
    3589:	75 24                	jne    35af <pfhandleptr+0x40>
    358b:	48 8b 45 e0          	mov    rax,QWORD PTR [rbp-0x20]
    358f:	8b 40 0c             	mov    eax,DWORD PTR [rax+0xc]
    3592:	85 c0                	test   eax,eax
    3594:	75 19                	jne    35af <pfhandleptr+0x40>
    3596:	48 8d 3d a7 18 00 00 	lea    rdi,[rip+0x18a7]        # 4e44 <_IO_stdin_used+0x314>
    359d:	e8 80 0a 00 00       	call   4022 <ft_strdup>
    35a2:	48 89 c2             	mov    rdx,rax
    35a5:	48 8b 45 e0          	mov    rax,QWORD PTR [rbp-0x20]
    35a9:	48 89 50 28          	mov    QWORD PTR [rax+0x28],rdx
    35ad:	eb 4f                	jmp    35fe <pfhandleptr+0x8f>
    35af:	48 8b 45 e0          	mov    rax,QWORD PTR [rbp-0x20]
    35b3:	8b 50 0c             	mov    edx,DWORD PTR [rax+0xc]
    35b6:	48 8b 45 e8          	mov    rax,QWORD PTR [rbp-0x18]
    35ba:	48 8b 00             	mov    rax,QWORD PTR [rax]
    35bd:	be 10 00 00 00       	mov    esi,0x10
    35c2:	48 89 c7             	mov    rdi,rax
    35c5:	e8 55 fb ff ff       	call   311f <pfutostr>
    35ca:	48 89 45 f8          	mov    QWORD PTR [rbp-0x8],rax
    35ce:	48 8b 45 f8          	mov    rax,QWORD PTR [rbp-0x8]
    35d2:	48 85 c0             	test   rax,rax
    35d5:	74 26                	je     35fd <pfhandleptr+0x8e>
    35d7:	48 8d 45 f8          	lea    rax,[rbp-0x8]
    35db:	ba 00 00 00 00       	mov    edx,0x0
    35e0:	48 89 c6             	mov    rsi,rax
    35e3:	48 8d 3d 5a 18 00 00 	lea    rdi,[rip+0x185a]        # 4e44 <_IO_stdin_used+0x314>
    35ea:	e8 61 f7 ff ff       	call   2d50 <pfprepend>
    35ef:	48 8b 55 f8          	mov    rdx,QWORD PTR [rbp-0x8]
    35f3:	48 8b 45 e0          	mov    rax,QWORD PTR [rbp-0x20]
    35f7:	48 89 50 28          	mov    QWORD PTR [rax+0x28],rdx
    35fb:	eb 01                	jmp    35fe <pfhandleptr+0x8f>
    35fd:	90                   	nop
    35fe:	c9                   	leave  
    35ff:	c3                   	ret    

0000000000003600 <pfhandleoct>:
    3600:	55                   	push   rbp
    3601:	48 89 e5             	mov    rbp,rsp
    3604:	53                   	push   rbx
    3605:	48 83 ec 28          	sub    rsp,0x28
    3609:	48 89 7d d8          	mov    QWORD PTR [rbp-0x28],rdi
    360d:	48 89 75 d0          	mov    QWORD PTR [rbp-0x30],rsi
    3611:	48 8b 45 d8          	mov    rax,QWORD PTR [rbp-0x28]
    3615:	48 8b 00             	mov    rax,QWORD PTR [rax]
    3618:	48 89 45 e8          	mov    QWORD PTR [rbp-0x18],rax
    361c:	48 83 7d e8 00       	cmp    QWORD PTR [rbp-0x18],0x0
    3621:	74 57                	je     367a <pfhandleoct+0x7a>
    3623:	48 8b 45 d0          	mov    rax,QWORD PTR [rbp-0x30]
    3627:	8b 40 04             	mov    eax,DWORD PTR [rax+0x4]
    362a:	83 e0 01             	and    eax,0x1
    362d:	85 c0                	test   eax,eax
    362f:	74 49                	je     367a <pfhandleoct+0x7a>
    3631:	48 8b 45 d0          	mov    rax,QWORD PTR [rbp-0x30]
    3635:	8b 58 0c             	mov    ebx,DWORD PTR [rax+0xc]
    3638:	48 8b 45 e8          	mov    rax,QWORD PTR [rbp-0x18]
    363c:	be 08 00 00 00       	mov    esi,0x8
    3641:	48 89 c7             	mov    rdi,rax
    3644:	e8 d3 10 00 00       	call   471c <ft_uintlen>
    3649:	0f be c0             	movsx  eax,al
    364c:	83 c0 01             	add    eax,0x1
    364f:	39 c3                	cmp    ebx,eax
    3651:	7d 19                	jge    366c <pfhandleoct+0x6c>
    3653:	48 8b 45 e8          	mov    rax,QWORD PTR [rbp-0x18]
    3657:	be 08 00 00 00       	mov    esi,0x8
    365c:	48 89 c7             	mov    rdi,rax
    365f:	e8 b8 10 00 00       	call   471c <ft_uintlen>
    3664:	0f be c0             	movsx  eax,al
    3667:	83 c0 01             	add    eax,0x1
    366a:	eb 07                	jmp    3673 <pfhandleoct+0x73>
    366c:	48 8b 45 d0          	mov    rax,QWORD PTR [rbp-0x30]
    3670:	8b 40 0c             	mov    eax,DWORD PTR [rax+0xc]
    3673:	48 8b 55 d0          	mov    rdx,QWORD PTR [rbp-0x30]
    3677:	89 42 0c             	mov    DWORD PTR [rdx+0xc],eax
    367a:	48 83 7d e8 00       	cmp    QWORD PTR [rbp-0x18],0x0
    367f:	75 32                	jne    36b3 <pfhandleoct+0xb3>
    3681:	48 8b 45 d0          	mov    rax,QWORD PTR [rbp-0x30]
    3685:	8b 40 0c             	mov    eax,DWORD PTR [rax+0xc]
    3688:	85 c0                	test   eax,eax
    368a:	75 27                	jne    36b3 <pfhandleoct+0xb3>
    368c:	48 8b 45 d0          	mov    rax,QWORD PTR [rbp-0x30]
    3690:	8b 40 04             	mov    eax,DWORD PTR [rax+0x4]
    3693:	83 e0 01             	and    eax,0x1
    3696:	85 c0                	test   eax,eax
    3698:	75 19                	jne    36b3 <pfhandleoct+0xb3>
    369a:	48 8d 3d a6 17 00 00 	lea    rdi,[rip+0x17a6]        # 4e47 <_IO_stdin_used+0x317>
    36a1:	e8 7c 09 00 00       	call   4022 <ft_strdup>
    36a6:	48 89 c2             	mov    rdx,rax
    36a9:	48 8b 45 d0          	mov    rax,QWORD PTR [rbp-0x30]
    36ad:	48 89 50 28          	mov    QWORD PTR [rax+0x28],rdx
    36b1:	eb 23                	jmp    36d6 <pfhandleoct+0xd6>
    36b3:	48 8b 45 d0          	mov    rax,QWORD PTR [rbp-0x30]
    36b7:	8b 50 0c             	mov    edx,DWORD PTR [rax+0xc]
    36ba:	48 8b 45 e8          	mov    rax,QWORD PTR [rbp-0x18]
    36be:	be 08 00 00 00       	mov    esi,0x8
    36c3:	48 89 c7             	mov    rdi,rax
    36c6:	e8 54 fa ff ff       	call   311f <pfutostr>
    36cb:	48 89 c2             	mov    rdx,rax
    36ce:	48 8b 45 d0          	mov    rax,QWORD PTR [rbp-0x30]
    36d2:	48 89 50 28          	mov    QWORD PTR [rax+0x28],rdx
    36d6:	48 83 c4 28          	add    rsp,0x28
    36da:	5b                   	pop    rbx
    36db:	5d                   	pop    rbp
    36dc:	c3                   	ret    

00000000000036dd <pfhandlehex>:
    36dd:	55                   	push   rbp
    36de:	48 89 e5             	mov    rbp,rsp
    36e1:	48 83 ec 20          	sub    rsp,0x20
    36e5:	48 89 7d e8          	mov    QWORD PTR [rbp-0x18],rdi
    36e9:	48 89 75 e0          	mov    QWORD PTR [rbp-0x20],rsi
    36ed:	48 8b 45 e8          	mov    rax,QWORD PTR [rbp-0x18]
    36f1:	48 8b 00             	mov    rax,QWORD PTR [rax]
    36f4:	48 89 45 f8          	mov    QWORD PTR [rbp-0x8],rax
    36f8:	48 83 7d f8 00       	cmp    QWORD PTR [rbp-0x8],0x0
    36fd:	75 24                	jne    3723 <pfhandlehex+0x46>
    36ff:	48 8b 45 e0          	mov    rax,QWORD PTR [rbp-0x20]
    3703:	8b 40 0c             	mov    eax,DWORD PTR [rax+0xc]
    3706:	85 c0                	test   eax,eax
    3708:	75 19                	jne    3723 <pfhandlehex+0x46>
    370a:	48 8d 3d 37 17 00 00 	lea    rdi,[rip+0x1737]        # 4e48 <_IO_stdin_used+0x318>
    3711:	e8 0c 09 00 00       	call   4022 <ft_strdup>
    3716:	48 89 c2             	mov    rdx,rax
    3719:	48 8b 45 e0          	mov    rax,QWORD PTR [rbp-0x20]
    371d:	48 89 50 28          	mov    QWORD PTR [rax+0x28],rdx
    3721:	eb 47                	jmp    376a <pfhandlehex+0x8d>
    3723:	48 83 7d f8 00       	cmp    QWORD PTR [rbp-0x8],0x0
    3728:	74 1d                	je     3747 <pfhandlehex+0x6a>
    372a:	48 8b 45 e0          	mov    rax,QWORD PTR [rbp-0x20]
    372e:	8b 40 04             	mov    eax,DWORD PTR [rax+0x4]
    3731:	83 e0 01             	and    eax,0x1
    3734:	85 c0                	test   eax,eax
    3736:	74 0f                	je     3747 <pfhandlehex+0x6a>
    3738:	48 8b 45 e0          	mov    rax,QWORD PTR [rbp-0x20]
    373c:	48 8d 15 06 17 00 00 	lea    rdx,[rip+0x1706]        # 4e49 <_IO_stdin_used+0x319>
    3743:	48 89 50 20          	mov    QWORD PTR [rax+0x20],rdx
    3747:	48 8b 45 e0          	mov    rax,QWORD PTR [rbp-0x20]
    374b:	8b 50 0c             	mov    edx,DWORD PTR [rax+0xc]
    374e:	48 8b 45 f8          	mov    rax,QWORD PTR [rbp-0x8]
    3752:	be 10 00 00 00       	mov    esi,0x10
    3757:	48 89 c7             	mov    rdi,rax
    375a:	e8 c0 f9 ff ff       	call   311f <pfutostr>
    375f:	48 89 c2             	mov    rdx,rax
    3762:	48 8b 45 e0          	mov    rax,QWORD PTR [rbp-0x20]
    3766:	48 89 50 28          	mov    QWORD PTR [rax+0x28],rdx
    376a:	c9                   	leave  
    376b:	c3                   	ret    

000000000000376c <pfhandlehexup>:
    376c:	55                   	push   rbp
    376d:	48 89 e5             	mov    rbp,rsp
    3770:	48 83 ec 10          	sub    rsp,0x10
    3774:	48 89 7d f8          	mov    QWORD PTR [rbp-0x8],rdi
    3778:	48 89 75 f0          	mov    QWORD PTR [rbp-0x10],rsi
    377c:	48 8b 55 f0          	mov    rdx,QWORD PTR [rbp-0x10]
    3780:	48 8b 45 f8          	mov    rax,QWORD PTR [rbp-0x8]
    3784:	48 89 d6             	mov    rsi,rdx
    3787:	48 89 c7             	mov    rdi,rax
    378a:	e8 4e ff ff ff       	call   36dd <pfhandlehex>
    378f:	48 8b 45 f0          	mov    rax,QWORD PTR [rbp-0x10]
    3793:	48 8b 40 28          	mov    rax,QWORD PTR [rax+0x28]
    3797:	48 85 c0             	test   rax,rax
    379a:	74 39                	je     37d5 <pfhandlehexup+0x69>
    379c:	48 8b 45 f0          	mov    rax,QWORD PTR [rbp-0x10]
    37a0:	48 8b 40 20          	mov    rax,QWORD PTR [rax+0x20]
    37a4:	48 85 c0             	test   rax,rax
    37a7:	74 0f                	je     37b8 <pfhandlehexup+0x4c>
    37a9:	48 8b 45 f0          	mov    rax,QWORD PTR [rbp-0x10]
    37ad:	48 8d 15 98 16 00 00 	lea    rdx,[rip+0x1698]        # 4e4c <_IO_stdin_used+0x31c>
    37b4:	48 89 50 20          	mov    QWORD PTR [rax+0x20],rdx
    37b8:	48 8b 45 f0          	mov    rax,QWORD PTR [rbp-0x10]
    37bc:	48 8b 40 28          	mov    rax,QWORD PTR [rax+0x28]
    37c0:	48 89 c7             	mov    rdi,rax
    37c3:	e8 b2 0d 00 00       	call   457a <ft_strupr>
    37c8:	48 89 c2             	mov    rdx,rax
    37cb:	48 8b 45 f0          	mov    rax,QWORD PTR [rbp-0x10]
    37cf:	48 89 50 28          	mov    QWORD PTR [rax+0x28],rdx
    37d3:	eb 01                	jmp    37d6 <pfhandlehexup+0x6a>
    37d5:	90                   	nop
    37d6:	c9                   	leave  
    37d7:	c3                   	ret    

00000000000037d8 <pfhandlebin>:
    37d8:	55                   	push   rbp
    37d9:	48 89 e5             	mov    rbp,rsp
    37dc:	48 83 ec 20          	sub    rsp,0x20
    37e0:	48 89 7d e8          	mov    QWORD PTR [rbp-0x18],rdi
    37e4:	48 89 75 e0          	mov    QWORD PTR [rbp-0x20],rsi
    37e8:	48 8b 45 e8          	mov    rax,QWORD PTR [rbp-0x18]
    37ec:	48 8b 00             	mov    rax,QWORD PTR [rax]
    37ef:	48 89 45 f8          	mov    QWORD PTR [rbp-0x8],rax
    37f3:	48 8b 45 e0          	mov    rax,QWORD PTR [rbp-0x20]
    37f7:	8b 40 04             	mov    eax,DWORD PTR [rax+0x4]
    37fa:	83 e0 01             	and    eax,0x1
    37fd:	85 c0                	test   eax,eax
    37ff:	74 0f                	je     3810 <pfhandlebin+0x38>
    3801:	48 8b 45 e0          	mov    rax,QWORD PTR [rbp-0x20]
    3805:	48 8d 15 43 16 00 00 	lea    rdx,[rip+0x1643]        # 4e4f <_IO_stdin_used+0x31f>
    380c:	48 89 50 20          	mov    QWORD PTR [rax+0x20],rdx
    3810:	48 8b 45 e0          	mov    rax,QWORD PTR [rbp-0x20]
    3814:	8b 50 0c             	mov    edx,DWORD PTR [rax+0xc]
    3817:	48 8b 45 f8          	mov    rax,QWORD PTR [rbp-0x8]
    381b:	be 02 00 00 00       	mov    esi,0x2
    3820:	48 89 c7             	mov    rdi,rax
    3823:	e8 f7 f8 ff ff       	call   311f <pfutostr>
    3828:	48 89 c2             	mov    rdx,rax
    382b:	48 8b 45 e0          	mov    rax,QWORD PTR [rbp-0x20]
    382f:	48 89 50 28          	mov    QWORD PTR [rax+0x28],rdx
    3833:	90                   	nop
    3834:	c9                   	leave  
    3835:	c3                   	ret    

0000000000003836 <pfhandlenonprint>:
    3836:	55                   	push   rbp
    3837:	48 89 e5             	mov    rbp,rsp
    383a:	48 83 ec 20          	sub    rsp,0x20
    383e:	48 89 7d e8          	mov    QWORD PTR [rbp-0x18],rdi
    3842:	48 89 75 e0          	mov    QWORD PTR [rbp-0x20],rsi
    3846:	48 8b 45 e8          	mov    rax,QWORD PTR [rbp-0x18]
    384a:	48 8b 00             	mov    rax,QWORD PTR [rax]
    384d:	48 89 45 f0          	mov    QWORD PTR [rbp-0x10],rax
    3851:	48 8b 45 f0          	mov    rax,QWORD PTR [rbp-0x10]
    3855:	48 89 c7             	mov    rdi,rax
    3858:	e8 2c 07 00 00       	call   3f89 <ft_strlen>
    385d:	48 01 c0             	add    rax,rax
    3860:	48 83 c0 01          	add    rax,0x1
    3864:	be 08 00 00 00       	mov    esi,0x8
    3869:	48 89 c7             	mov    rdi,rax
    386c:	e8 d0 0a 00 00       	call   4341 <ft_calloc>
    3871:	48 89 c2             	mov    rdx,rax
    3874:	48 8b 45 e0          	mov    rax,QWORD PTR [rbp-0x20]
    3878:	48 89 50 28          	mov    QWORD PTR [rax+0x28],rdx
    387c:	48 8b 45 e0          	mov    rax,QWORD PTR [rbp-0x20]
    3880:	48 8b 40 28          	mov    rax,QWORD PTR [rax+0x28]
    3884:	48 85 c0             	test   rax,rax
    3887:	0f 84 23 01 00 00    	je     39b0 <pfhandlenonprint+0x17a>
    388d:	c7 45 fc ff ff ff ff 	mov    DWORD PTR [rbp-0x4],0xffffffff
    3894:	c7 45 f8 ff ff ff ff 	mov    DWORD PTR [rbp-0x8],0xffffffff
    389b:	e9 f2 00 00 00       	jmp    3992 <pfhandlenonprint+0x15c>
    38a0:	8b 45 fc             	mov    eax,DWORD PTR [rbp-0x4]
    38a3:	48 63 d0             	movsxd rdx,eax
    38a6:	48 8b 45 f0          	mov    rax,QWORD PTR [rbp-0x10]
    38aa:	48 01 d0             	add    rax,rdx
    38ad:	0f b6 00             	movzx  eax,BYTE PTR [rax]
    38b0:	0f be c0             	movsx  eax,al
    38b3:	89 c7                	mov    edi,eax
    38b5:	e8 02 09 00 00       	call   41bc <ft_isprint>
    38ba:	85 c0                	test   eax,eax
    38bc:	74 2b                	je     38e9 <pfhandlenonprint+0xb3>
    38be:	48 8b 45 e0          	mov    rax,QWORD PTR [rbp-0x20]
    38c2:	48 8b 50 28          	mov    rdx,QWORD PTR [rax+0x28]
    38c6:	83 45 f8 01          	add    DWORD PTR [rbp-0x8],0x1
    38ca:	8b 45 f8             	mov    eax,DWORD PTR [rbp-0x8]
    38cd:	48 98                	cdqe   
    38cf:	48 01 c2             	add    rdx,rax
    38d2:	8b 45 fc             	mov    eax,DWORD PTR [rbp-0x4]
    38d5:	48 63 c8             	movsxd rcx,eax
    38d8:	48 8b 45 f0          	mov    rax,QWORD PTR [rbp-0x10]
    38dc:	48 01 c8             	add    rax,rcx
    38df:	0f b6 00             	movzx  eax,BYTE PTR [rax]
    38e2:	88 02                	mov    BYTE PTR [rdx],al
    38e4:	e9 a9 00 00 00       	jmp    3992 <pfhandlenonprint+0x15c>
    38e9:	48 8b 45 e0          	mov    rax,QWORD PTR [rbp-0x20]
    38ed:	48 8b 50 28          	mov    rdx,QWORD PTR [rax+0x28]
    38f1:	83 45 f8 01          	add    DWORD PTR [rbp-0x8],0x1
    38f5:	8b 45 f8             	mov    eax,DWORD PTR [rbp-0x8]
    38f8:	48 98                	cdqe   
    38fa:	48 01 d0             	add    rax,rdx
    38fd:	8b 55 fc             	mov    edx,DWORD PTR [rbp-0x4]
    3900:	48 63 ca             	movsxd rcx,edx
    3903:	48 8b 55 f0          	mov    rdx,QWORD PTR [rbp-0x10]
    3907:	48 01 ca             	add    rdx,rcx
    390a:	0f b6 12             	movzx  edx,BYTE PTR [rdx]
    390d:	80 fa 0a             	cmp    dl,0xa
    3910:	74 07                	je     3919 <pfhandlenonprint+0xe3>
    3912:	ba 5e 00 00 00       	mov    edx,0x5e
    3917:	eb 05                	jmp    391e <pfhandlenonprint+0xe8>
    3919:	ba 24 00 00 00       	mov    edx,0x24
    391e:	88 10                	mov    BYTE PTR [rax],dl
    3920:	8b 45 fc             	mov    eax,DWORD PTR [rbp-0x4]
    3923:	48 63 d0             	movsxd rdx,eax
    3926:	48 8b 45 f0          	mov    rax,QWORD PTR [rbp-0x10]
    392a:	48 01 d0             	add    rax,rdx
    392d:	0f b6 00             	movzx  eax,BYTE PTR [rax]
    3930:	3c 0a                	cmp    al,0xa
    3932:	74 47                	je     397b <pfhandlenonprint+0x145>
    3934:	48 8b 45 e0          	mov    rax,QWORD PTR [rbp-0x20]
    3938:	48 8b 50 28          	mov    rdx,QWORD PTR [rax+0x28]
    393c:	83 45 f8 01          	add    DWORD PTR [rbp-0x8],0x1
    3940:	8b 45 f8             	mov    eax,DWORD PTR [rbp-0x8]
    3943:	48 98                	cdqe   
    3945:	48 01 d0             	add    rax,rdx
    3948:	8b 55 fc             	mov    edx,DWORD PTR [rbp-0x4]
    394b:	48 63 ca             	movsxd rcx,edx
    394e:	48 8b 55 f0          	mov    rdx,QWORD PTR [rbp-0x10]
    3952:	48 01 ca             	add    rdx,rcx
    3955:	0f b6 12             	movzx  edx,BYTE PTR [rdx]
    3958:	80 fa 7f             	cmp    dl,0x7f
    395b:	74 15                	je     3972 <pfhandlenonprint+0x13c>
    395d:	8b 55 fc             	mov    edx,DWORD PTR [rbp-0x4]
    3960:	48 63 ca             	movsxd rcx,edx
    3963:	48 8b 55 f0          	mov    rdx,QWORD PTR [rbp-0x10]
    3967:	48 01 ca             	add    rdx,rcx
    396a:	0f b6 12             	movzx  edx,BYTE PTR [rdx]
    396d:	83 c2 40             	add    edx,0x40
    3970:	eb 05                	jmp    3977 <pfhandlenonprint+0x141>
    3972:	ba 3f 00 00 00       	mov    edx,0x3f
    3977:	88 10                	mov    BYTE PTR [rax],dl
    3979:	eb 17                	jmp    3992 <pfhandlenonprint+0x15c>
    397b:	48 8b 45 e0          	mov    rax,QWORD PTR [rbp-0x20]
    397f:	48 8b 50 28          	mov    rdx,QWORD PTR [rax+0x28]
    3983:	83 45 f8 01          	add    DWORD PTR [rbp-0x8],0x1
    3987:	8b 45 f8             	mov    eax,DWORD PTR [rbp-0x8]
    398a:	48 98                	cdqe   
    398c:	48 01 d0             	add    rax,rdx
    398f:	c6 00 0a             	mov    BYTE PTR [rax],0xa
    3992:	83 45 fc 01          	add    DWORD PTR [rbp-0x4],0x1
    3996:	8b 45 fc             	mov    eax,DWORD PTR [rbp-0x4]
    3999:	48 63 d0             	movsxd rdx,eax
    399c:	48 8b 45 f0          	mov    rax,QWORD PTR [rbp-0x10]
    39a0:	48 01 d0             	add    rax,rdx
    39a3:	0f b6 00             	movzx  eax,BYTE PTR [rax]
    39a6:	84 c0                	test   al,al
    39a8:	0f 85 f2 fe ff ff    	jne    38a0 <pfhandlenonprint+0x6a>
    39ae:	eb 01                	jmp    39b1 <pfhandlenonprint+0x17b>
    39b0:	90                   	nop
    39b1:	c9                   	leave  
    39b2:	c3                   	ret    

00000000000039b3 <pfhandlefloat>:
    39b3:	55                   	push   rbp
    39b4:	48 89 e5             	mov    rbp,rsp
    39b7:	48 83 ec 10          	sub    rsp,0x10
    39bb:	48 89 7d f8          	mov    QWORD PTR [rbp-0x8],rdi
    39bf:	48 89 75 f0          	mov    QWORD PTR [rbp-0x10],rsi
    39c3:	48 8b 45 f0          	mov    rax,QWORD PTR [rbp-0x10]
    39c7:	8b 40 0c             	mov    eax,DWORD PTR [rax+0xc]
    39ca:	83 f8 ff             	cmp    eax,0xffffffff
    39cd:	74 09                	je     39d8 <pfhandlefloat+0x25>
    39cf:	48 8b 45 f0          	mov    rax,QWORD PTR [rbp-0x10]
    39d3:	8b 40 0c             	mov    eax,DWORD PTR [rax+0xc]
    39d6:	eb 05                	jmp    39dd <pfhandlefloat+0x2a>
    39d8:	b8 06 00 00 00       	mov    eax,0x6
    39dd:	48 8b 55 f0          	mov    rdx,QWORD PTR [rbp-0x10]
    39e1:	89 42 0c             	mov    DWORD PTR [rdx+0xc],eax
    39e4:	48 8b 45 f0          	mov    rax,QWORD PTR [rbp-0x10]
    39e8:	8b 40 04             	mov    eax,DWORD PTR [rax+0x4]
    39eb:	83 e0 01             	and    eax,0x1
    39ee:	85 c0                	test   eax,eax
    39f0:	0f 95 c0             	setne  al
    39f3:	0f b6 d0             	movzx  edx,al
    39f6:	48 8b 45 f0          	mov    rax,QWORD PTR [rbp-0x10]
    39fa:	8b 40 0c             	mov    eax,DWORD PTR [rax+0xc]
    39fd:	48 8b 4d f8          	mov    rcx,QWORD PTR [rbp-0x8]
    3a01:	db 29                	fld    TBYTE PTR [rcx]
    3a03:	48 8d 64 24 f0       	lea    rsp,[rsp-0x10]
    3a08:	db 3c 24             	fstp   TBYTE PTR [rsp]
    3a0b:	89 d6                	mov    esi,edx
    3a0d:	89 c7                	mov    edi,eax
    3a0f:	e8 2c f4 ff ff       	call   2e40 <pfdtostr>
    3a14:	48 83 c4 10          	add    rsp,0x10
    3a18:	48 89 c2             	mov    rdx,rax
    3a1b:	48 8b 45 f0          	mov    rax,QWORD PTR [rbp-0x10]
    3a1f:	48 89 50 28          	mov    QWORD PTR [rax+0x28],rdx
    3a23:	90                   	nop
    3a24:	c9                   	leave  
    3a25:	c3                   	ret    

0000000000003a26 <memset1b>:
    3a26:	55                   	push   rbp
    3a27:	48 89 e5             	mov    rbp,rsp
    3a2a:	48 89 7d f8          	mov    QWORD PTR [rbp-0x8],rdi
    3a2e:	89 f0                	mov    eax,esi
    3a30:	88 45 f4             	mov    BYTE PTR [rbp-0xc],al
    3a33:	48 8b 45 f8          	mov    rax,QWORD PTR [rbp-0x8]
    3a37:	48 8b 00             	mov    rax,QWORD PTR [rax]
    3a3a:	0f b6 55 f4          	movzx  edx,BYTE PTR [rbp-0xc]
    3a3e:	88 10                	mov    BYTE PTR [rax],dl
    3a40:	48 8b 45 f8          	mov    rax,QWORD PTR [rbp-0x8]
    3a44:	48 8b 00             	mov    rax,QWORD PTR [rax]
    3a47:	48 8d 50 01          	lea    rdx,[rax+0x1]
    3a4b:	48 8b 45 f8          	mov    rax,QWORD PTR [rbp-0x8]
    3a4f:	48 89 10             	mov    QWORD PTR [rax],rdx
    3a52:	b8 01 00 00 00       	mov    eax,0x1
    3a57:	5d                   	pop    rbp
    3a58:	c3                   	ret    

0000000000003a59 <memset2b>:
    3a59:	55                   	push   rbp
    3a5a:	48 89 e5             	mov    rbp,rsp
    3a5d:	48 89 7d e8          	mov    QWORD PTR [rbp-0x18],rdi
    3a61:	89 f0                	mov    eax,esi
    3a63:	88 45 e4             	mov    BYTE PTR [rbp-0x1c],al
    3a66:	0f b6 45 e4          	movzx  eax,BYTE PTR [rbp-0x1c]
    3a6a:	66 89 45 fe          	mov    WORD PTR [rbp-0x2],ax
    3a6e:	0f b7 45 fe          	movzx  eax,WORD PTR [rbp-0x2]
    3a72:	c1 e0 08             	shl    eax,0x8
    3a75:	89 c2                	mov    edx,eax
    3a77:	0f b6 45 e4          	movzx  eax,BYTE PTR [rbp-0x1c]
    3a7b:	31 d0                	xor    eax,edx
    3a7d:	66 89 45 fe          	mov    WORD PTR [rbp-0x2],ax
    3a81:	48 8b 45 e8          	mov    rax,QWORD PTR [rbp-0x18]
    3a85:	48 8b 00             	mov    rax,QWORD PTR [rax]
    3a88:	0f b7 55 fe          	movzx  edx,WORD PTR [rbp-0x2]
    3a8c:	66 89 10             	mov    WORD PTR [rax],dx
    3a8f:	48 8b 45 e8          	mov    rax,QWORD PTR [rbp-0x18]
    3a93:	48 8b 00             	mov    rax,QWORD PTR [rax]
    3a96:	48 8d 50 02          	lea    rdx,[rax+0x2]
    3a9a:	48 8b 45 e8          	mov    rax,QWORD PTR [rbp-0x18]
    3a9e:	48 89 10             	mov    QWORD PTR [rax],rdx
    3aa1:	b8 02 00 00 00       	mov    eax,0x2
    3aa6:	5d                   	pop    rbp
    3aa7:	c3                   	ret    

0000000000003aa8 <memset4b>:
    3aa8:	55                   	push   rbp
    3aa9:	48 89 e5             	mov    rbp,rsp
    3aac:	48 89 7d e8          	mov    QWORD PTR [rbp-0x18],rdi
    3ab0:	89 f0                	mov    eax,esi
    3ab2:	88 45 e4             	mov    BYTE PTR [rbp-0x1c],al
    3ab5:	0f b6 45 e4          	movzx  eax,BYTE PTR [rbp-0x1c]
    3ab9:	89 45 fc             	mov    DWORD PTR [rbp-0x4],eax
    3abc:	8b 45 fc             	mov    eax,DWORD PTR [rbp-0x4]
    3abf:	c1 e0 08             	shl    eax,0x8
    3ac2:	89 c2                	mov    edx,eax
    3ac4:	0f b6 45 e4          	movzx  eax,BYTE PTR [rbp-0x1c]
    3ac8:	31 d0                	xor    eax,edx
    3aca:	89 45 fc             	mov    DWORD PTR [rbp-0x4],eax
    3acd:	8b 45 fc             	mov    eax,DWORD PTR [rbp-0x4]
    3ad0:	c1 e0 08             	shl    eax,0x8
    3ad3:	89 c2                	mov    edx,eax
    3ad5:	0f b6 45 e4          	movzx  eax,BYTE PTR [rbp-0x1c]
    3ad9:	31 d0                	xor    eax,edx
    3adb:	89 45 fc             	mov    DWORD PTR [rbp-0x4],eax
    3ade:	8b 45 fc             	mov    eax,DWORD PTR [rbp-0x4]
    3ae1:	c1 e0 08             	shl    eax,0x8
    3ae4:	89 c2                	mov    edx,eax
    3ae6:	0f b6 45 e4          	movzx  eax,BYTE PTR [rbp-0x1c]
    3aea:	31 d0                	xor    eax,edx
    3aec:	89 45 fc             	mov    DWORD PTR [rbp-0x4],eax
    3aef:	48 8b 45 e8          	mov    rax,QWORD PTR [rbp-0x18]
    3af3:	48 8b 00             	mov    rax,QWORD PTR [rax]
    3af6:	8b 55 fc             	mov    edx,DWORD PTR [rbp-0x4]
    3af9:	89 10                	mov    DWORD PTR [rax],edx
    3afb:	48 8b 45 e8          	mov    rax,QWORD PTR [rbp-0x18]
    3aff:	48 8b 00             	mov    rax,QWORD PTR [rax]
    3b02:	48 8d 50 04          	lea    rdx,[rax+0x4]
    3b06:	48 8b 45 e8          	mov    rax,QWORD PTR [rbp-0x18]
    3b0a:	48 89 10             	mov    QWORD PTR [rax],rdx
    3b0d:	b8 04 00 00 00       	mov    eax,0x4
    3b12:	5d                   	pop    rbp
    3b13:	c3                   	ret    

0000000000003b14 <memset8b>:
    3b14:	55                   	push   rbp
    3b15:	48 89 e5             	mov    rbp,rsp
    3b18:	48 89 7d e8          	mov    QWORD PTR [rbp-0x18],rdi
    3b1c:	89 f0                	mov    eax,esi
    3b1e:	88 45 e4             	mov    BYTE PTR [rbp-0x1c],al
    3b21:	0f b6 45 e4          	movzx  eax,BYTE PTR [rbp-0x1c]
    3b25:	48 89 45 f8          	mov    QWORD PTR [rbp-0x8],rax
    3b29:	48 8b 45 f8          	mov    rax,QWORD PTR [rbp-0x8]
    3b2d:	48 c1 e0 08          	shl    rax,0x8
    3b31:	48 89 c2             	mov    rdx,rax
    3b34:	0f b6 45 e4          	movzx  eax,BYTE PTR [rbp-0x1c]
    3b38:	48 31 d0             	xor    rax,rdx
    3b3b:	48 89 45 f8          	mov    QWORD PTR [rbp-0x8],rax
    3b3f:	48 8b 45 f8          	mov    rax,QWORD PTR [rbp-0x8]
    3b43:	48 c1 e0 08          	shl    rax,0x8
    3b47:	48 89 c2             	mov    rdx,rax
    3b4a:	0f b6 45 e4          	movzx  eax,BYTE PTR [rbp-0x1c]
    3b4e:	48 31 d0             	xor    rax,rdx
    3b51:	48 89 45 f8          	mov    QWORD PTR [rbp-0x8],rax
    3b55:	48 8b 45 f8          	mov    rax,QWORD PTR [rbp-0x8]
    3b59:	48 c1 e0 08          	shl    rax,0x8
    3b5d:	48 89 c2             	mov    rdx,rax
    3b60:	0f b6 45 e4          	movzx  eax,BYTE PTR [rbp-0x1c]
    3b64:	48 31 d0             	xor    rax,rdx
    3b67:	48 89 45 f8          	mov    QWORD PTR [rbp-0x8],rax
    3b6b:	48 8b 45 f8          	mov    rax,QWORD PTR [rbp-0x8]
    3b6f:	48 c1 e0 08          	shl    rax,0x8
    3b73:	48 89 c2             	mov    rdx,rax
    3b76:	0f b6 45 e4          	movzx  eax,BYTE PTR [rbp-0x1c]
    3b7a:	48 31 d0             	xor    rax,rdx
    3b7d:	48 89 45 f8          	mov    QWORD PTR [rbp-0x8],rax
    3b81:	48 8b 45 f8          	mov    rax,QWORD PTR [rbp-0x8]
    3b85:	48 c1 e0 08          	shl    rax,0x8
    3b89:	48 89 c2             	mov    rdx,rax
    3b8c:	0f b6 45 e4          	movzx  eax,BYTE PTR [rbp-0x1c]
    3b90:	48 31 d0             	xor    rax,rdx
    3b93:	48 89 45 f8          	mov    QWORD PTR [rbp-0x8],rax
    3b97:	48 8b 45 f8          	mov    rax,QWORD PTR [rbp-0x8]
    3b9b:	48 c1 e0 08          	shl    rax,0x8
    3b9f:	48 89 c2             	mov    rdx,rax
    3ba2:	0f b6 45 e4          	movzx  eax,BYTE PTR [rbp-0x1c]
    3ba6:	48 31 d0             	xor    rax,rdx
    3ba9:	48 89 45 f8          	mov    QWORD PTR [rbp-0x8],rax
    3bad:	48 8b 45 f8          	mov    rax,QWORD PTR [rbp-0x8]
    3bb1:	48 c1 e0 08          	shl    rax,0x8
    3bb5:	48 89 c2             	mov    rdx,rax
    3bb8:	0f b6 45 e4          	movzx  eax,BYTE PTR [rbp-0x1c]
    3bbc:	48 31 d0             	xor    rax,rdx
    3bbf:	48 89 45 f8          	mov    QWORD PTR [rbp-0x8],rax
    3bc3:	48 8b 45 e8          	mov    rax,QWORD PTR [rbp-0x18]
    3bc7:	48 8b 00             	mov    rax,QWORD PTR [rax]
    3bca:	48 8b 55 f8          	mov    rdx,QWORD PTR [rbp-0x8]
    3bce:	48 89 10             	mov    QWORD PTR [rax],rdx
    3bd1:	48 8b 45 e8          	mov    rax,QWORD PTR [rbp-0x18]
    3bd5:	48 8b 00             	mov    rax,QWORD PTR [rax]
    3bd8:	48 8d 50 08          	lea    rdx,[rax+0x8]
    3bdc:	48 8b 45 e8          	mov    rax,QWORD PTR [rbp-0x18]
    3be0:	48 89 10             	mov    QWORD PTR [rax],rdx
    3be3:	b8 08 00 00 00       	mov    eax,0x8
    3be8:	5d                   	pop    rbp
    3be9:	c3                   	ret    

0000000000003bea <ft_memset>:
    3bea:	55                   	push   rbp
    3beb:	48 89 e5             	mov    rbp,rsp
    3bee:	48 83 ec 28          	sub    rsp,0x28
    3bf2:	48 89 7d e8          	mov    QWORD PTR [rbp-0x18],rdi
    3bf6:	89 75 e4             	mov    DWORD PTR [rbp-0x1c],esi
    3bf9:	48 89 55 d8          	mov    QWORD PTR [rbp-0x28],rdx
    3bfd:	48 8b 45 e8          	mov    rax,QWORD PTR [rbp-0x18]
    3c01:	48 89 45 f8          	mov    QWORD PTR [rbp-0x8],rax
    3c05:	eb 7b                	jmp    3c82 <ft_memset+0x98>
    3c07:	48 83 7d d8 01       	cmp    QWORD PTR [rbp-0x28],0x1
    3c0c:	77 1a                	ja     3c28 <ft_memset+0x3e>
    3c0e:	8b 45 e4             	mov    eax,DWORD PTR [rbp-0x1c]
    3c11:	0f b6 d0             	movzx  edx,al
    3c14:	48 8d 45 e8          	lea    rax,[rbp-0x18]
    3c18:	89 d6                	mov    esi,edx
    3c1a:	48 89 c7             	mov    rdi,rax
    3c1d:	e8 04 fe ff ff       	call   3a26 <memset1b>
    3c22:	48 29 45 d8          	sub    QWORD PTR [rbp-0x28],rax
    3c26:	eb 5a                	jmp    3c82 <ft_memset+0x98>
    3c28:	48 83 7d d8 03       	cmp    QWORD PTR [rbp-0x28],0x3
    3c2d:	77 1a                	ja     3c49 <ft_memset+0x5f>
    3c2f:	8b 45 e4             	mov    eax,DWORD PTR [rbp-0x1c]
    3c32:	0f b6 d0             	movzx  edx,al
    3c35:	48 8d 45 e8          	lea    rax,[rbp-0x18]
    3c39:	89 d6                	mov    esi,edx
    3c3b:	48 89 c7             	mov    rdi,rax
    3c3e:	e8 16 fe ff ff       	call   3a59 <memset2b>
    3c43:	48 29 45 d8          	sub    QWORD PTR [rbp-0x28],rax
    3c47:	eb 39                	jmp    3c82 <ft_memset+0x98>
    3c49:	48 83 7d d8 07       	cmp    QWORD PTR [rbp-0x28],0x7
    3c4e:	77 1a                	ja     3c6a <ft_memset+0x80>
    3c50:	8b 45 e4             	mov    eax,DWORD PTR [rbp-0x1c]
    3c53:	0f b6 d0             	movzx  edx,al
    3c56:	48 8d 45 e8          	lea    rax,[rbp-0x18]
    3c5a:	89 d6                	mov    esi,edx
    3c5c:	48 89 c7             	mov    rdi,rax
    3c5f:	e8 44 fe ff ff       	call   3aa8 <memset4b>
    3c64:	48 29 45 d8          	sub    QWORD PTR [rbp-0x28],rax
    3c68:	eb 18                	jmp    3c82 <ft_memset+0x98>
    3c6a:	8b 45 e4             	mov    eax,DWORD PTR [rbp-0x1c]
    3c6d:	0f b6 d0             	movzx  edx,al
    3c70:	48 8d 45 e8          	lea    rax,[rbp-0x18]
    3c74:	89 d6                	mov    esi,edx
    3c76:	48 89 c7             	mov    rdi,rax
    3c79:	e8 96 fe ff ff       	call   3b14 <memset8b>
    3c7e:	48 29 45 d8          	sub    QWORD PTR [rbp-0x28],rax
    3c82:	48 83 7d d8 00       	cmp    QWORD PTR [rbp-0x28],0x0
    3c87:	0f 85 7a ff ff ff    	jne    3c07 <ft_memset+0x1d>
    3c8d:	48 8b 45 f8          	mov    rax,QWORD PTR [rbp-0x8]
    3c91:	c9                   	leave  
    3c92:	c3                   	ret    

0000000000003c93 <memcpy1b>:
    3c93:	55                   	push   rbp
    3c94:	48 89 e5             	mov    rbp,rsp
    3c97:	48 89 7d f8          	mov    QWORD PTR [rbp-0x8],rdi
    3c9b:	48 89 75 f0          	mov    QWORD PTR [rbp-0x10],rsi
    3c9f:	48 8b 45 f8          	mov    rax,QWORD PTR [rbp-0x8]
    3ca3:	48 8b 00             	mov    rax,QWORD PTR [rax]
    3ca6:	48 8b 55 f0          	mov    rdx,QWORD PTR [rbp-0x10]
    3caa:	48 8b 12             	mov    rdx,QWORD PTR [rdx]
    3cad:	0f b6 12             	movzx  edx,BYTE PTR [rdx]
    3cb0:	88 10                	mov    BYTE PTR [rax],dl
    3cb2:	48 8b 45 f8          	mov    rax,QWORD PTR [rbp-0x8]
    3cb6:	48 8b 00             	mov    rax,QWORD PTR [rax]
    3cb9:	48 8d 50 01          	lea    rdx,[rax+0x1]
    3cbd:	48 8b 45 f8          	mov    rax,QWORD PTR [rbp-0x8]
    3cc1:	48 89 10             	mov    QWORD PTR [rax],rdx
    3cc4:	48 8b 45 f0          	mov    rax,QWORD PTR [rbp-0x10]
    3cc8:	48 8b 00             	mov    rax,QWORD PTR [rax]
    3ccb:	48 8d 50 01          	lea    rdx,[rax+0x1]
    3ccf:	48 8b 45 f0          	mov    rax,QWORD PTR [rbp-0x10]
    3cd3:	48 89 10             	mov    QWORD PTR [rax],rdx
    3cd6:	b8 01 00 00 00       	mov    eax,0x1
    3cdb:	5d                   	pop    rbp
    3cdc:	c3                   	ret    

0000000000003cdd <memcpy2b>:
    3cdd:	55                   	push   rbp
    3cde:	48 89 e5             	mov    rbp,rsp
    3ce1:	48 89 7d f8          	mov    QWORD PTR [rbp-0x8],rdi
    3ce5:	48 89 75 f0          	mov    QWORD PTR [rbp-0x10],rsi
    3ce9:	48 8b 45 f8          	mov    rax,QWORD PTR [rbp-0x8]
    3ced:	48 8b 00             	mov    rax,QWORD PTR [rax]
    3cf0:	48 8b 55 f0          	mov    rdx,QWORD PTR [rbp-0x10]
    3cf4:	48 8b 12             	mov    rdx,QWORD PTR [rdx]
    3cf7:	0f b7 12             	movzx  edx,WORD PTR [rdx]
    3cfa:	66 89 10             	mov    WORD PTR [rax],dx
    3cfd:	48 8b 45 f8          	mov    rax,QWORD PTR [rbp-0x8]
    3d01:	48 8b 00             	mov    rax,QWORD PTR [rax]
    3d04:	48 8d 50 02          	lea    rdx,[rax+0x2]
    3d08:	48 8b 45 f8          	mov    rax,QWORD PTR [rbp-0x8]
    3d0c:	48 89 10             	mov    QWORD PTR [rax],rdx
    3d0f:	48 8b 45 f0          	mov    rax,QWORD PTR [rbp-0x10]
    3d13:	48 8b 00             	mov    rax,QWORD PTR [rax]
    3d16:	48 8d 50 02          	lea    rdx,[rax+0x2]
    3d1a:	48 8b 45 f0          	mov    rax,QWORD PTR [rbp-0x10]
    3d1e:	48 89 10             	mov    QWORD PTR [rax],rdx
    3d21:	b8 02 00 00 00       	mov    eax,0x2
    3d26:	5d                   	pop    rbp
    3d27:	c3                   	ret    

0000000000003d28 <memcpy4b>:
    3d28:	55                   	push   rbp
    3d29:	48 89 e5             	mov    rbp,rsp
    3d2c:	48 89 7d f8          	mov    QWORD PTR [rbp-0x8],rdi
    3d30:	48 89 75 f0          	mov    QWORD PTR [rbp-0x10],rsi
    3d34:	48 8b 45 f8          	mov    rax,QWORD PTR [rbp-0x8]
    3d38:	48 8b 00             	mov    rax,QWORD PTR [rax]
    3d3b:	48 8b 55 f0          	mov    rdx,QWORD PTR [rbp-0x10]
    3d3f:	48 8b 12             	mov    rdx,QWORD PTR [rdx]
    3d42:	8b 12                	mov    edx,DWORD PTR [rdx]
    3d44:	89 10                	mov    DWORD PTR [rax],edx
    3d46:	48 8b 45 f8          	mov    rax,QWORD PTR [rbp-0x8]
    3d4a:	48 8b 00             	mov    rax,QWORD PTR [rax]
    3d4d:	48 8d 50 04          	lea    rdx,[rax+0x4]
    3d51:	48 8b 45 f8          	mov    rax,QWORD PTR [rbp-0x8]
    3d55:	48 89 10             	mov    QWORD PTR [rax],rdx
    3d58:	48 8b 45 f0          	mov    rax,QWORD PTR [rbp-0x10]
    3d5c:	48 8b 00             	mov    rax,QWORD PTR [rax]
    3d5f:	48 8d 50 04          	lea    rdx,[rax+0x4]
    3d63:	48 8b 45 f0          	mov    rax,QWORD PTR [rbp-0x10]
    3d67:	48 89 10             	mov    QWORD PTR [rax],rdx
    3d6a:	b8 04 00 00 00       	mov    eax,0x4
    3d6f:	5d                   	pop    rbp
    3d70:	c3                   	ret    

0000000000003d71 <memcpy8b>:
    3d71:	55                   	push   rbp
    3d72:	48 89 e5             	mov    rbp,rsp
    3d75:	48 89 7d f8          	mov    QWORD PTR [rbp-0x8],rdi
    3d79:	48 89 75 f0          	mov    QWORD PTR [rbp-0x10],rsi
    3d7d:	48 8b 45 f8          	mov    rax,QWORD PTR [rbp-0x8]
    3d81:	48 8b 00             	mov    rax,QWORD PTR [rax]
    3d84:	48 8b 55 f0          	mov    rdx,QWORD PTR [rbp-0x10]
    3d88:	48 8b 12             	mov    rdx,QWORD PTR [rdx]
    3d8b:	48 8b 12             	mov    rdx,QWORD PTR [rdx]
    3d8e:	48 89 10             	mov    QWORD PTR [rax],rdx
    3d91:	48 8b 45 f8          	mov    rax,QWORD PTR [rbp-0x8]
    3d95:	48 8b 00             	mov    rax,QWORD PTR [rax]
    3d98:	48 8d 50 08          	lea    rdx,[rax+0x8]
    3d9c:	48 8b 45 f8          	mov    rax,QWORD PTR [rbp-0x8]
    3da0:	48 89 10             	mov    QWORD PTR [rax],rdx
    3da3:	48 8b 45 f0          	mov    rax,QWORD PTR [rbp-0x10]
    3da7:	48 8b 00             	mov    rax,QWORD PTR [rax]
    3daa:	48 8d 50 08          	lea    rdx,[rax+0x8]
    3dae:	48 8b 45 f0          	mov    rax,QWORD PTR [rbp-0x10]
    3db2:	48 89 10             	mov    QWORD PTR [rax],rdx
    3db5:	b8 08 00 00 00       	mov    eax,0x8
    3dba:	5d                   	pop    rbp
    3dbb:	c3                   	ret    

0000000000003dbc <ft_memcpy>:
    3dbc:	55                   	push   rbp
    3dbd:	48 89 e5             	mov    rbp,rsp
    3dc0:	48 83 ec 28          	sub    rsp,0x28
    3dc4:	48 89 7d e8          	mov    QWORD PTR [rbp-0x18],rdi
    3dc8:	48 89 75 e0          	mov    QWORD PTR [rbp-0x20],rsi
    3dcc:	48 89 55 d8          	mov    QWORD PTR [rbp-0x28],rdx
    3dd0:	48 8b 45 e8          	mov    rax,QWORD PTR [rbp-0x18]
    3dd4:	48 89 45 f8          	mov    QWORD PTR [rbp-0x8],rax
    3dd8:	eb 77                	jmp    3e51 <ft_memcpy+0x95>
    3dda:	48 83 7d d8 01       	cmp    QWORD PTR [rbp-0x28],0x1
    3ddf:	77 19                	ja     3dfa <ft_memcpy+0x3e>
    3de1:	48 8d 55 e0          	lea    rdx,[rbp-0x20]
    3de5:	48 8d 45 e8          	lea    rax,[rbp-0x18]
    3de9:	48 89 d6             	mov    rsi,rdx
    3dec:	48 89 c7             	mov    rdi,rax
    3def:	e8 9f fe ff ff       	call   3c93 <memcpy1b>
    3df4:	48 29 45 d8          	sub    QWORD PTR [rbp-0x28],rax
    3df8:	eb 57                	jmp    3e51 <ft_memcpy+0x95>
    3dfa:	48 83 7d d8 03       	cmp    QWORD PTR [rbp-0x28],0x3
    3dff:	77 19                	ja     3e1a <ft_memcpy+0x5e>
    3e01:	48 8d 55 e0          	lea    rdx,[rbp-0x20]
    3e05:	48 8d 45 e8          	lea    rax,[rbp-0x18]
    3e09:	48 89 d6             	mov    rsi,rdx
    3e0c:	48 89 c7             	mov    rdi,rax
    3e0f:	e8 c9 fe ff ff       	call   3cdd <memcpy2b>
    3e14:	48 29 45 d8          	sub    QWORD PTR [rbp-0x28],rax
    3e18:	eb 37                	jmp    3e51 <ft_memcpy+0x95>
    3e1a:	48 83 7d d8 07       	cmp    QWORD PTR [rbp-0x28],0x7
    3e1f:	77 19                	ja     3e3a <ft_memcpy+0x7e>
    3e21:	48 8d 55 e0          	lea    rdx,[rbp-0x20]
    3e25:	48 8d 45 e8          	lea    rax,[rbp-0x18]
    3e29:	48 89 d6             	mov    rsi,rdx
    3e2c:	48 89 c7             	mov    rdi,rax
    3e2f:	e8 f4 fe ff ff       	call   3d28 <memcpy4b>
    3e34:	48 29 45 d8          	sub    QWORD PTR [rbp-0x28],rax
    3e38:	eb 17                	jmp    3e51 <ft_memcpy+0x95>
    3e3a:	48 8d 55 e0          	lea    rdx,[rbp-0x20]
    3e3e:	48 8d 45 e8          	lea    rax,[rbp-0x18]
    3e42:	48 89 d6             	mov    rsi,rdx
    3e45:	48 89 c7             	mov    rdi,rax
    3e48:	e8 24 ff ff ff       	call   3d71 <memcpy8b>
    3e4d:	48 29 45 d8          	sub    QWORD PTR [rbp-0x28],rax
    3e51:	48 83 7d d8 00       	cmp    QWORD PTR [rbp-0x28],0x0
    3e56:	75 82                	jne    3dda <ft_memcpy+0x1e>
    3e58:	48 8b 45 f8          	mov    rax,QWORD PTR [rbp-0x8]
    3e5c:	c9                   	leave  
    3e5d:	c3                   	ret    

0000000000003e5e <ft_memmove>:
    3e5e:	55                   	push   rbp
    3e5f:	48 89 e5             	mov    rbp,rsp
    3e62:	48 89 7d e8          	mov    QWORD PTR [rbp-0x18],rdi
    3e66:	48 89 75 e0          	mov    QWORD PTR [rbp-0x20],rsi
    3e6a:	48 89 55 d8          	mov    QWORD PTR [rbp-0x28],rdx
    3e6e:	48 8b 45 e8          	mov    rax,QWORD PTR [rbp-0x18]
    3e72:	48 3b 45 e0          	cmp    rax,QWORD PTR [rbp-0x20]
    3e76:	73 63                	jae    3edb <ft_memmove+0x7d>
    3e78:	48 8b 45 d8          	mov    rax,QWORD PTR [rbp-0x28]
    3e7c:	48 89 45 f8          	mov    QWORD PTR [rbp-0x8],rax
    3e80:	eb 2b                	jmp    3ead <ft_memmove+0x4f>
    3e82:	48 8b 45 f8          	mov    rax,QWORD PTR [rbp-0x8]
    3e86:	48 2b 45 d8          	sub    rax,QWORD PTR [rbp-0x28]
    3e8a:	48 8d 50 ff          	lea    rdx,[rax-0x1]
    3e8e:	48 8b 45 e8          	mov    rax,QWORD PTR [rbp-0x18]
    3e92:	48 01 c2             	add    rdx,rax
    3e95:	48 8b 45 f8          	mov    rax,QWORD PTR [rbp-0x8]
    3e99:	48 2b 45 d8          	sub    rax,QWORD PTR [rbp-0x28]
    3e9d:	48 8d 48 ff          	lea    rcx,[rax-0x1]
    3ea1:	48 8b 45 e0          	mov    rax,QWORD PTR [rbp-0x20]
    3ea5:	48 01 c8             	add    rax,rcx
    3ea8:	0f b6 00             	movzx  eax,BYTE PTR [rax]
    3eab:	88 02                	mov    BYTE PTR [rdx],al
    3ead:	48 8b 45 d8          	mov    rax,QWORD PTR [rbp-0x28]
    3eb1:	48 8d 50 ff          	lea    rdx,[rax-0x1]
    3eb5:	48 89 55 d8          	mov    QWORD PTR [rbp-0x28],rdx
    3eb9:	48 85 c0             	test   rax,rax
    3ebc:	75 c4                	jne    3e82 <ft_memmove+0x24>
    3ebe:	eb 2c                	jmp    3eec <ft_memmove+0x8e>
    3ec0:	48 8b 55 e8          	mov    rdx,QWORD PTR [rbp-0x18]
    3ec4:	48 8b 45 d8          	mov    rax,QWORD PTR [rbp-0x28]
    3ec8:	48 01 c2             	add    rdx,rax
    3ecb:	48 8b 4d e0          	mov    rcx,QWORD PTR [rbp-0x20]
    3ecf:	48 8b 45 d8          	mov    rax,QWORD PTR [rbp-0x28]
    3ed3:	48 01 c8             	add    rax,rcx
    3ed6:	0f b6 00             	movzx  eax,BYTE PTR [rax]
    3ed9:	88 02                	mov    BYTE PTR [rdx],al
    3edb:	48 8b 45 d8          	mov    rax,QWORD PTR [rbp-0x28]
    3edf:	48 8d 50 ff          	lea    rdx,[rax-0x1]
    3ee3:	48 89 55 d8          	mov    QWORD PTR [rbp-0x28],rdx
    3ee7:	48 85 c0             	test   rax,rax
    3eea:	75 d4                	jne    3ec0 <ft_memmove+0x62>
    3eec:	48 8b 45 e8          	mov    rax,QWORD PTR [rbp-0x18]
    3ef0:	5d                   	pop    rbp
    3ef1:	c3                   	ret    

0000000000003ef2 <ft_retlen>:
    3ef2:	55                   	push   rbp
    3ef3:	48 89 e5             	mov    rbp,rsp
    3ef6:	48 89 7d f8          	mov    QWORD PTR [rbp-0x8],rdi
    3efa:	48 89 75 f0          	mov    QWORD PTR [rbp-0x10],rsi
    3efe:	48 8b 45 f8          	mov    rax,QWORD PTR [rbp-0x8]
    3f02:	0f b6 00             	movzx  eax,BYTE PTR [rax]
    3f05:	84 c0                	test   al,al
    3f07:	75 10                	jne    3f19 <ft_retlen+0x27>
    3f09:	48 8b 55 f8          	mov    rdx,QWORD PTR [rbp-0x8]
    3f0d:	48 8b 45 f0          	mov    rax,QWORD PTR [rbp-0x10]
    3f11:	48 29 c2             	sub    rdx,rax
    3f14:	48 89 d0             	mov    rax,rdx
    3f17:	eb 6e                	jmp    3f87 <ft_retlen+0x95>
    3f19:	48 8b 45 f8          	mov    rax,QWORD PTR [rbp-0x8]
    3f1d:	48 83 c0 01          	add    rax,0x1
    3f21:	0f b6 00             	movzx  eax,BYTE PTR [rax]
    3f24:	84 c0                	test   al,al
    3f26:	75 14                	jne    3f3c <ft_retlen+0x4a>
    3f28:	48 8b 55 f8          	mov    rdx,QWORD PTR [rbp-0x8]
    3f2c:	48 8b 45 f0          	mov    rax,QWORD PTR [rbp-0x10]
    3f30:	48 29 c2             	sub    rdx,rax
    3f33:	48 89 d0             	mov    rax,rdx
    3f36:	48 83 c0 01          	add    rax,0x1
    3f3a:	eb 4b                	jmp    3f87 <ft_retlen+0x95>
    3f3c:	48 8b 45 f8          	mov    rax,QWORD PTR [rbp-0x8]
    3f40:	48 83 c0 02          	add    rax,0x2
    3f44:	0f b6 00             	movzx  eax,BYTE PTR [rax]
    3f47:	84 c0                	test   al,al
    3f49:	75 14                	jne    3f5f <ft_retlen+0x6d>
    3f4b:	48 8b 55 f8          	mov    rdx,QWORD PTR [rbp-0x8]
    3f4f:	48 8b 45 f0          	mov    rax,QWORD PTR [rbp-0x10]
    3f53:	48 29 c2             	sub    rdx,rax
    3f56:	48 89 d0             	mov    rax,rdx
    3f59:	48 83 c0 02          	add    rax,0x2
    3f5d:	eb 28                	jmp    3f87 <ft_retlen+0x95>
    3f5f:	48 8b 45 f8          	mov    rax,QWORD PTR [rbp-0x8]
    3f63:	48 83 c0 03          	add    rax,0x3
    3f67:	0f b6 00             	movzx  eax,BYTE PTR [rax]
    3f6a:	84 c0                	test   al,al
    3f6c:	75 14                	jne    3f82 <ft_retlen+0x90>
    3f6e:	48 8b 55 f8          	mov    rdx,QWORD PTR [rbp-0x8]
    3f72:	48 8b 45 f0          	mov    rax,QWORD PTR [rbp-0x10]
    3f76:	48 29 c2             	sub    rdx,rax
    3f79:	48 89 d0             	mov    rax,rdx
    3f7c:	48 83 c0 03          	add    rax,0x3
    3f80:	eb 05                	jmp    3f87 <ft_retlen+0x95>
    3f82:	b8 00 00 00 00       	mov    eax,0x0
    3f87:	5d                   	pop    rbp
    3f88:	c3                   	ret    

0000000000003f89 <ft_strlen>:
    3f89:	55                   	push   rbp
    3f8a:	48 89 e5             	mov    rbp,rsp
    3f8d:	48 83 ec 28          	sub    rsp,0x28
    3f91:	48 89 7d d8          	mov    QWORD PTR [rbp-0x28],rdi
    3f95:	48 8b 45 d8          	mov    rax,QWORD PTR [rbp-0x28]
    3f99:	48 89 45 f8          	mov    QWORD PTR [rbp-0x8],rax
    3f9d:	eb 27                	jmp    3fc6 <ft_strlen+0x3d>
    3f9f:	48 8b 45 f8          	mov    rax,QWORD PTR [rbp-0x8]
    3fa3:	48 8d 50 01          	lea    rdx,[rax+0x1]
    3fa7:	48 89 55 f8          	mov    QWORD PTR [rbp-0x8],rdx
    3fab:	0f b6 00             	movzx  eax,BYTE PTR [rax]
    3fae:	84 c0                	test   al,al
    3fb0:	75 14                	jne    3fc6 <ft_strlen+0x3d>
    3fb2:	48 8b 55 f8          	mov    rdx,QWORD PTR [rbp-0x8]
    3fb6:	48 8b 45 d8          	mov    rax,QWORD PTR [rbp-0x28]
    3fba:	48 29 c2             	sub    rdx,rax
    3fbd:	48 89 d0             	mov    rax,rdx
    3fc0:	48 83 e8 01          	sub    rax,0x1
    3fc4:	eb 5a                	jmp    4020 <ft_strlen+0x97>
    3fc6:	48 8b 45 f8          	mov    rax,QWORD PTR [rbp-0x8]
    3fca:	83 e0 03             	and    eax,0x3
    3fcd:	48 85 c0             	test   rax,rax
    3fd0:	75 cd                	jne    3f9f <ft_strlen+0x16>
    3fd2:	48 8b 45 f8          	mov    rax,QWORD PTR [rbp-0x8]
    3fd6:	48 89 45 f0          	mov    QWORD PTR [rbp-0x10],rax
    3fda:	48 8b 45 f0          	mov    rax,QWORD PTR [rbp-0x10]
    3fde:	48 8d 50 04          	lea    rdx,[rax+0x4]
    3fe2:	48 89 55 f0          	mov    QWORD PTR [rbp-0x10],rdx
    3fe6:	8b 00                	mov    eax,DWORD PTR [rax]
    3fe8:	89 45 ec             	mov    DWORD PTR [rbp-0x14],eax
    3feb:	8b 45 ec             	mov    eax,DWORD PTR [rbp-0x14]
    3fee:	48 8d 90 ff fe fe fe 	lea    rdx,[rax-0x1010101]
    3ff5:	8b 45 ec             	mov    eax,DWORD PTR [rbp-0x14]
    3ff8:	f7 d0                	not    eax
    3ffa:	89 c0                	mov    eax,eax
    3ffc:	48 21 d0             	and    rax,rdx
    3fff:	25 80 80 80 80       	and    eax,0x80808080
    4004:	48 85 c0             	test   rax,rax
    4007:	74 d1                	je     3fda <ft_strlen+0x51>
    4009:	48 8b 45 f0          	mov    rax,QWORD PTR [rbp-0x10]
    400d:	48 8d 50 fc          	lea    rdx,[rax-0x4]
    4011:	48 8b 45 d8          	mov    rax,QWORD PTR [rbp-0x28]
    4015:	48 89 c6             	mov    rsi,rax
    4018:	48 89 d7             	mov    rdi,rdx
    401b:	e8 d2 fe ff ff       	call   3ef2 <ft_retlen>
    4020:	c9                   	leave  
    4021:	c3                   	ret    

0000000000004022 <ft_strdup>:
    4022:	55                   	push   rbp
    4023:	48 89 e5             	mov    rbp,rsp
    4026:	48 83 ec 20          	sub    rsp,0x20
    402a:	48 89 7d e8          	mov    QWORD PTR [rbp-0x18],rdi
    402e:	48 8b 45 e8          	mov    rax,QWORD PTR [rbp-0x18]
    4032:	48 89 c7             	mov    rdi,rax
    4035:	e8 4f ff ff ff       	call   3f89 <ft_strlen>
    403a:	83 c0 01             	add    eax,0x1
    403d:	89 45 fc             	mov    DWORD PTR [rbp-0x4],eax
    4040:	8b 45 fc             	mov    eax,DWORD PTR [rbp-0x4]
    4043:	48 98                	cdqe   
    4045:	48 89 c7             	mov    rdi,rax
    4048:	e8 23 ce ff ff       	call   e70 <malloc@plt>
    404d:	48 89 45 f0          	mov    QWORD PTR [rbp-0x10],rax
    4051:	48 83 7d f0 00       	cmp    QWORD PTR [rbp-0x10],0x0
    4056:	75 07                	jne    405f <ft_strdup+0x3d>
    4058:	b8 00 00 00 00       	mov    eax,0x0
    405d:	eb 1d                	jmp    407c <ft_strdup+0x5a>
    405f:	8b 45 fc             	mov    eax,DWORD PTR [rbp-0x4]
    4062:	48 63 d0             	movsxd rdx,eax
    4065:	48 8b 4d e8          	mov    rcx,QWORD PTR [rbp-0x18]
    4069:	48 8b 45 f0          	mov    rax,QWORD PTR [rbp-0x10]
    406d:	48 89 ce             	mov    rsi,rcx
    4070:	48 89 c7             	mov    rdi,rax
    4073:	e8 44 fd ff ff       	call   3dbc <ft_memcpy>
    4078:	48 8b 45 f0          	mov    rax,QWORD PTR [rbp-0x10]
    407c:	c9                   	leave  
    407d:	c3                   	ret    

000000000000407e <ft_strndup>:
    407e:	55                   	push   rbp
    407f:	48 89 e5             	mov    rbp,rsp
    4082:	48 83 ec 20          	sub    rsp,0x20
    4086:	48 89 7d e8          	mov    QWORD PTR [rbp-0x18],rdi
    408a:	48 89 75 e0          	mov    QWORD PTR [rbp-0x20],rsi
    408e:	48 8b 45 e0          	mov    rax,QWORD PTR [rbp-0x20]
    4092:	48 83 c0 01          	add    rax,0x1
    4096:	48 89 c7             	mov    rdi,rax
    4099:	e8 d2 cd ff ff       	call   e70 <malloc@plt>
    409e:	48 89 45 f8          	mov    QWORD PTR [rbp-0x8],rax
    40a2:	48 83 7d f8 00       	cmp    QWORD PTR [rbp-0x8],0x0
    40a7:	75 07                	jne    40b0 <ft_strndup+0x32>
    40a9:	b8 00 00 00 00       	mov    eax,0x0
    40ae:	eb 29                	jmp    40d9 <ft_strndup+0x5b>
    40b0:	48 8b 55 e0          	mov    rdx,QWORD PTR [rbp-0x20]
    40b4:	48 8b 4d e8          	mov    rcx,QWORD PTR [rbp-0x18]
    40b8:	48 8b 45 f8          	mov    rax,QWORD PTR [rbp-0x8]
    40bc:	48 89 ce             	mov    rsi,rcx
    40bf:	48 89 c7             	mov    rdi,rax
    40c2:	e8 f5 fc ff ff       	call   3dbc <ft_memcpy>
    40c7:	48 8b 55 f8          	mov    rdx,QWORD PTR [rbp-0x8]
    40cb:	48 8b 45 e0          	mov    rax,QWORD PTR [rbp-0x20]
    40cf:	48 01 d0             	add    rax,rdx
    40d2:	c6 00 00             	mov    BYTE PTR [rax],0x0
    40d5:	48 8b 45 f8          	mov    rax,QWORD PTR [rbp-0x8]
    40d9:	c9                   	leave  
    40da:	c3                   	ret    

00000000000040db <ft_strcpy>:
    40db:	55                   	push   rbp
    40dc:	48 89 e5             	mov    rbp,rsp
    40df:	48 83 ec 10          	sub    rsp,0x10
    40e3:	48 89 7d f8          	mov    QWORD PTR [rbp-0x8],rdi
    40e7:	48 89 75 f0          	mov    QWORD PTR [rbp-0x10],rsi
    40eb:	48 8b 45 f0          	mov    rax,QWORD PTR [rbp-0x10]
    40ef:	48 89 c7             	mov    rdi,rax
    40f2:	e8 92 fe ff ff       	call   3f89 <ft_strlen>
    40f7:	48 8d 50 01          	lea    rdx,[rax+0x1]
    40fb:	48 8b 4d f0          	mov    rcx,QWORD PTR [rbp-0x10]
    40ff:	48 8b 45 f8          	mov    rax,QWORD PTR [rbp-0x8]
    4103:	48 89 ce             	mov    rsi,rcx
    4106:	48 89 c7             	mov    rdi,rax
    4109:	e8 ae fc ff ff       	call   3dbc <ft_memcpy>
    410e:	48 8b 45 f8          	mov    rax,QWORD PTR [rbp-0x8]
    4112:	c9                   	leave  
    4113:	c3                   	ret    

0000000000004114 <ft_strcat>:
    4114:	55                   	push   rbp
    4115:	48 89 e5             	mov    rbp,rsp
    4118:	53                   	push   rbx
    4119:	48 83 ec 18          	sub    rsp,0x18
    411d:	48 89 7d e8          	mov    QWORD PTR [rbp-0x18],rdi
    4121:	48 89 75 e0          	mov    QWORD PTR [rbp-0x20],rsi
    4125:	48 8b 45 e0          	mov    rax,QWORD PTR [rbp-0x20]
    4129:	48 89 c7             	mov    rdi,rax
    412c:	e8 58 fe ff ff       	call   3f89 <ft_strlen>
    4131:	48 8d 58 01          	lea    rbx,[rax+0x1]
    4135:	48 8b 45 e8          	mov    rax,QWORD PTR [rbp-0x18]
    4139:	48 89 c7             	mov    rdi,rax
    413c:	e8 48 fe ff ff       	call   3f89 <ft_strlen>
    4141:	48 89 c2             	mov    rdx,rax
    4144:	48 8b 45 e8          	mov    rax,QWORD PTR [rbp-0x18]
    4148:	48 8d 0c 02          	lea    rcx,[rdx+rax*1]
    414c:	48 8b 45 e0          	mov    rax,QWORD PTR [rbp-0x20]
    4150:	48 89 da             	mov    rdx,rbx
    4153:	48 89 c6             	mov    rsi,rax
    4156:	48 89 cf             	mov    rdi,rcx
    4159:	e8 5e fc ff ff       	call   3dbc <ft_memcpy>
    415e:	48 8b 45 e8          	mov    rax,QWORD PTR [rbp-0x18]
    4162:	48 83 c4 18          	add    rsp,0x18
    4166:	5b                   	pop    rbx
    4167:	5d                   	pop    rbp
    4168:	c3                   	ret    

0000000000004169 <ft_strchr>:
    4169:	55                   	push   rbp
    416a:	48 89 e5             	mov    rbp,rsp
    416d:	48 83 ec 10          	sub    rsp,0x10
    4171:	48 89 7d f8          	mov    QWORD PTR [rbp-0x8],rdi
    4175:	89 75 f4             	mov    DWORD PTR [rbp-0xc],esi
    4178:	48 8b 45 f8          	mov    rax,QWORD PTR [rbp-0x8]
    417c:	48 89 c7             	mov    rdi,rax
    417f:	e8 05 fe ff ff       	call   3f89 <ft_strlen>
    4184:	48 8d 50 01          	lea    rdx,[rax+0x1]
    4188:	8b 4d f4             	mov    ecx,DWORD PTR [rbp-0xc]
    418b:	48 8b 45 f8          	mov    rax,QWORD PTR [rbp-0x8]
    418f:	89 ce                	mov    esi,ecx
    4191:	48 89 c7             	mov    rdi,rax
    4194:	e8 4b 07 00 00       	call   48e4 <ft_memchr>
    4199:	c9                   	leave  
    419a:	c3                   	ret    

000000000000419b <ft_isdigit>:
    419b:	55                   	push   rbp
    419c:	48 89 e5             	mov    rbp,rsp
    419f:	89 7d fc             	mov    DWORD PTR [rbp-0x4],edi
    41a2:	83 7d fc 2f          	cmp    DWORD PTR [rbp-0x4],0x2f
    41a6:	7e 0d                	jle    41b5 <ft_isdigit+0x1a>
    41a8:	83 7d fc 39          	cmp    DWORD PTR [rbp-0x4],0x39
    41ac:	7f 07                	jg     41b5 <ft_isdigit+0x1a>
    41ae:	b8 01 00 00 00       	mov    eax,0x1
    41b3:	eb 05                	jmp    41ba <ft_isdigit+0x1f>
    41b5:	b8 00 00 00 00       	mov    eax,0x0
    41ba:	5d                   	pop    rbp
    41bb:	c3                   	ret    

00000000000041bc <ft_isprint>:
    41bc:	55                   	push   rbp
    41bd:	48 89 e5             	mov    rbp,rsp
    41c0:	89 7d fc             	mov    DWORD PTR [rbp-0x4],edi
    41c3:	83 7d fc 1f          	cmp    DWORD PTR [rbp-0x4],0x1f
    41c7:	7e 0d                	jle    41d6 <ft_isprint+0x1a>
    41c9:	83 7d fc 7e          	cmp    DWORD PTR [rbp-0x4],0x7e
    41cd:	7f 07                	jg     41d6 <ft_isprint+0x1a>
    41cf:	b8 01 00 00 00       	mov    eax,0x1
    41d4:	eb 05                	jmp    41db <ft_isprint+0x1f>
    41d6:	b8 00 00 00 00       	mov    eax,0x0
    41db:	5d                   	pop    rbp
    41dc:	c3                   	ret    

00000000000041dd <ft_atoi>:
    41dd:	55                   	push   rbp
    41de:	48 89 e5             	mov    rbp,rsp
    41e1:	48 83 ec 20          	sub    rsp,0x20
    41e5:	48 89 7d e8          	mov    QWORD PTR [rbp-0x18],rdi
    41e9:	eb 05                	jmp    41f0 <ft_atoi+0x13>
    41eb:	48 83 45 e8 01       	add    QWORD PTR [rbp-0x18],0x1
    41f0:	48 8b 45 e8          	mov    rax,QWORD PTR [rbp-0x18]
    41f4:	0f b6 00             	movzx  eax,BYTE PTR [rax]
    41f7:	3c 20                	cmp    al,0x20
    41f9:	74 f0                	je     41eb <ft_atoi+0xe>
    41fb:	48 8b 45 e8          	mov    rax,QWORD PTR [rbp-0x18]
    41ff:	0f b6 00             	movzx  eax,BYTE PTR [rax]
    4202:	3c 09                	cmp    al,0x9
    4204:	74 e5                	je     41eb <ft_atoi+0xe>
    4206:	48 8b 45 e8          	mov    rax,QWORD PTR [rbp-0x18]
    420a:	0f b6 00             	movzx  eax,BYTE PTR [rax]
    420d:	3c 0b                	cmp    al,0xb
    420f:	74 da                	je     41eb <ft_atoi+0xe>
    4211:	48 8b 45 e8          	mov    rax,QWORD PTR [rbp-0x18]
    4215:	0f b6 00             	movzx  eax,BYTE PTR [rax]
    4218:	3c 0c                	cmp    al,0xc
    421a:	74 cf                	je     41eb <ft_atoi+0xe>
    421c:	48 8b 45 e8          	mov    rax,QWORD PTR [rbp-0x18]
    4220:	0f b6 00             	movzx  eax,BYTE PTR [rax]
    4223:	3c 0d                	cmp    al,0xd
    4225:	74 c4                	je     41eb <ft_atoi+0xe>
    4227:	48 8b 45 e8          	mov    rax,QWORD PTR [rbp-0x18]
    422b:	0f b6 00             	movzx  eax,BYTE PTR [rax]
    422e:	3c 0a                	cmp    al,0xa
    4230:	74 b9                	je     41eb <ft_atoi+0xe>
    4232:	48 8b 45 e8          	mov    rax,QWORD PTR [rbp-0x18]
    4236:	0f b6 00             	movzx  eax,BYTE PTR [rax]
    4239:	3c 2d                	cmp    al,0x2d
    423b:	0f 94 c0             	sete   al
    423e:	0f b6 c0             	movzx  eax,al
    4241:	89 45 f4             	mov    DWORD PTR [rbp-0xc],eax
    4244:	48 8b 45 e8          	mov    rax,QWORD PTR [rbp-0x18]
    4248:	0f b6 00             	movzx  eax,BYTE PTR [rax]
    424b:	3c 2b                	cmp    al,0x2b
    424d:	74 06                	je     4255 <ft_atoi+0x78>
    424f:	83 7d f4 00          	cmp    DWORD PTR [rbp-0xc],0x0
    4253:	74 05                	je     425a <ft_atoi+0x7d>
    4255:	48 83 45 e8 01       	add    QWORD PTR [rbp-0x18],0x1
    425a:	48 8b 45 e8          	mov    rax,QWORD PTR [rbp-0x18]
    425e:	0f b6 00             	movzx  eax,BYTE PTR [rax]
    4261:	0f be c0             	movsx  eax,al
    4264:	89 c7                	mov    edi,eax
    4266:	e8 30 ff ff ff       	call   419b <ft_isdigit>
    426b:	85 c0                	test   eax,eax
    426d:	75 07                	jne    4276 <ft_atoi+0x99>
    426f:	b8 00 00 00 00       	mov    eax,0x0
    4274:	eb 63                	jmp    42d9 <ft_atoi+0xfc>
    4276:	48 c7 45 f8 00 00 00 	mov    QWORD PTR [rbp-0x8],0x0
    427d:	00 
    427e:	eb 32                	jmp    42b2 <ft_atoi+0xd5>
    4280:	48 8b 55 f8          	mov    rdx,QWORD PTR [rbp-0x8]
    4284:	48 89 d0             	mov    rax,rdx
    4287:	48 c1 e0 02          	shl    rax,0x2
    428b:	48 01 d0             	add    rax,rdx
    428e:	48 01 c0             	add    rax,rax
    4291:	48 89 c1             	mov    rcx,rax
    4294:	48 8b 45 e8          	mov    rax,QWORD PTR [rbp-0x18]
    4298:	48 8d 50 01          	lea    rdx,[rax+0x1]
    429c:	48 89 55 e8          	mov    QWORD PTR [rbp-0x18],rdx
    42a0:	0f b6 00             	movzx  eax,BYTE PTR [rax]
    42a3:	48 0f be c0          	movsx  rax,al
    42a7:	48 01 c8             	add    rax,rcx
    42aa:	48 83 e8 30          	sub    rax,0x30
    42ae:	48 89 45 f8          	mov    QWORD PTR [rbp-0x8],rax
    42b2:	48 8b 45 e8          	mov    rax,QWORD PTR [rbp-0x18]
    42b6:	0f b6 00             	movzx  eax,BYTE PTR [rax]
    42b9:	0f be c0             	movsx  eax,al
    42bc:	89 c7                	mov    edi,eax
    42be:	e8 d8 fe ff ff       	call   419b <ft_isdigit>
    42c3:	85 c0                	test   eax,eax
    42c5:	75 b9                	jne    4280 <ft_atoi+0xa3>
    42c7:	83 7d f4 00          	cmp    DWORD PTR [rbp-0xc],0x0
    42cb:	74 08                	je     42d5 <ft_atoi+0xf8>
    42cd:	48 8b 45 f8          	mov    rax,QWORD PTR [rbp-0x8]
    42d1:	f7 d8                	neg    eax
    42d3:	eb 04                	jmp    42d9 <ft_atoi+0xfc>
    42d5:	48 8b 45 f8          	mov    rax,QWORD PTR [rbp-0x8]
    42d9:	c9                   	leave  
    42da:	c3                   	ret    

00000000000042db <ft_strnew>:
    42db:	55                   	push   rbp
    42dc:	48 89 e5             	mov    rbp,rsp
    42df:	48 83 ec 10          	sub    rsp,0x10
    42e3:	48 89 7d f8          	mov    QWORD PTR [rbp-0x8],rdi
    42e7:	48 8b 45 f8          	mov    rax,QWORD PTR [rbp-0x8]
    42eb:	48 83 c0 01          	add    rax,0x1
    42ef:	be 01 00 00 00       	mov    esi,0x1
    42f4:	48 89 c7             	mov    rdi,rax
    42f7:	e8 45 00 00 00       	call   4341 <ft_calloc>
    42fc:	c9                   	leave  
    42fd:	c3                   	ret    

00000000000042fe <ft_strequ>:
    42fe:	55                   	push   rbp
    42ff:	48 89 e5             	mov    rbp,rsp
    4302:	48 83 ec 10          	sub    rsp,0x10
    4306:	48 89 7d f8          	mov    QWORD PTR [rbp-0x8],rdi
    430a:	48 89 75 f0          	mov    QWORD PTR [rbp-0x10],rsi
    430e:	48 83 7d f8 00       	cmp    QWORD PTR [rbp-0x8],0x0
    4313:	74 25                	je     433a <ft_strequ+0x3c>
    4315:	48 83 7d f0 00       	cmp    QWORD PTR [rbp-0x10],0x0
    431a:	74 1e                	je     433a <ft_strequ+0x3c>
    431c:	48 8b 55 f0          	mov    rdx,QWORD PTR [rbp-0x10]
    4320:	48 8b 45 f8          	mov    rax,QWORD PTR [rbp-0x8]
    4324:	48 89 d6             	mov    rsi,rdx
    4327:	48 89 c7             	mov    rdi,rax
    432a:	e8 fe 05 00 00       	call   492d <ft_strcmp>
    432f:	85 c0                	test   eax,eax
    4331:	75 07                	jne    433a <ft_strequ+0x3c>
    4333:	b8 01 00 00 00       	mov    eax,0x1
    4338:	eb 05                	jmp    433f <ft_strequ+0x41>
    433a:	b8 00 00 00 00       	mov    eax,0x0
    433f:	c9                   	leave  
    4340:	c3                   	ret    

0000000000004341 <ft_calloc>:
    4341:	55                   	push   rbp
    4342:	48 89 e5             	mov    rbp,rsp
    4345:	48 83 ec 20          	sub    rsp,0x20
    4349:	48 89 7d e8          	mov    QWORD PTR [rbp-0x18],rdi
    434d:	48 89 75 e0          	mov    QWORD PTR [rbp-0x20],rsi
    4351:	48 8b 45 e8          	mov    rax,QWORD PTR [rbp-0x18]
    4355:	48 0f af 45 e0       	imul   rax,QWORD PTR [rbp-0x20]
    435a:	48 89 c7             	mov    rdi,rax
    435d:	e8 0e cb ff ff       	call   e70 <malloc@plt>
    4362:	48 89 45 f8          	mov    QWORD PTR [rbp-0x8],rax
    4366:	48 83 7d f8 00       	cmp    QWORD PTR [rbp-0x8],0x0
    436b:	75 07                	jne    4374 <ft_calloc+0x33>
    436d:	b8 00 00 00 00       	mov    eax,0x0
    4372:	eb 1f                	jmp    4393 <ft_calloc+0x52>
    4374:	48 8b 45 e8          	mov    rax,QWORD PTR [rbp-0x18]
    4378:	48 0f af 45 e0       	imul   rax,QWORD PTR [rbp-0x20]
    437d:	48 89 c2             	mov    rdx,rax
    4380:	48 8b 45 f8          	mov    rax,QWORD PTR [rbp-0x8]
    4384:	48 89 d6             	mov    rsi,rdx
    4387:	48 89 c7             	mov    rdi,rax
    438a:	e8 de 04 00 00       	call   486d <ft_bzero>
    438f:	48 8b 45 f8          	mov    rax,QWORD PTR [rbp-0x8]
    4393:	c9                   	leave  
    4394:	c3                   	ret    

0000000000004395 <ft_realloc>:
    4395:	55                   	push   rbp
    4396:	48 89 e5             	mov    rbp,rsp
    4399:	48 83 ec 20          	sub    rsp,0x20
    439d:	48 89 7d e8          	mov    QWORD PTR [rbp-0x18],rdi
    43a1:	48 89 75 e0          	mov    QWORD PTR [rbp-0x20],rsi
    43a5:	48 8b 45 e0          	mov    rax,QWORD PTR [rbp-0x20]
    43a9:	48 89 c7             	mov    rdi,rax
    43ac:	e8 bf ca ff ff       	call   e70 <malloc@plt>
    43b1:	48 89 45 f8          	mov    QWORD PTR [rbp-0x8],rax
    43b5:	48 83 7d f8 00       	cmp    QWORD PTR [rbp-0x8],0x0
    43ba:	75 07                	jne    43c3 <ft_realloc+0x2e>
    43bc:	b8 00 00 00 00       	mov    eax,0x0
    43c1:	eb 27                	jmp    43ea <ft_realloc+0x55>
    43c3:	48 8b 4d e8          	mov    rcx,QWORD PTR [rbp-0x18]
    43c7:	48 8b 55 e0          	mov    rdx,QWORD PTR [rbp-0x20]
    43cb:	48 8b 45 f8          	mov    rax,QWORD PTR [rbp-0x8]
    43cf:	48 89 ce             	mov    rsi,rcx
    43d2:	48 89 c7             	mov    rdi,rax
    43d5:	e8 e2 f9 ff ff       	call   3dbc <ft_memcpy>
    43da:	48 8d 45 e8          	lea    rax,[rbp-0x18]
    43de:	48 89 c7             	mov    rdi,rax
    43e1:	e8 eb 05 00 00       	call   49d1 <ft_memdel>
    43e6:	48 8b 45 f8          	mov    rax,QWORD PTR [rbp-0x8]
    43ea:	c9                   	leave  
    43eb:	c3                   	ret    

00000000000043ec <ft_itostr>:
    43ec:	55                   	push   rbp
    43ed:	48 89 e5             	mov    rbp,rsp
    43f0:	48 83 ec 30          	sub    rsp,0x30
    43f4:	48 89 7d d8          	mov    QWORD PTR [rbp-0x28],rdi
    43f8:	89 75 d4             	mov    DWORD PTR [rbp-0x2c],esi
    43fb:	48 8d 05 50 0a 00 00 	lea    rax,[rip+0xa50]        # 4e52 <_IO_stdin_used+0x322>
    4402:	48 89 45 f0          	mov    QWORD PTR [rbp-0x10],rax
    4406:	48 8b 45 d8          	mov    rax,QWORD PTR [rbp-0x28]
    440a:	48 c1 e8 3f          	shr    rax,0x3f
    440e:	0f b6 c0             	movzx  eax,al
    4411:	89 45 ec             	mov    DWORD PTR [rbp-0x14],eax
    4414:	8b 55 d4             	mov    edx,DWORD PTR [rbp-0x2c]
    4417:	48 8b 45 d8          	mov    rax,QWORD PTR [rbp-0x28]
    441b:	89 d6                	mov    esi,edx
    441d:	48 89 c7             	mov    rdi,rax
    4420:	e8 a3 02 00 00       	call   46c8 <ft_intlen>
    4425:	0f be c0             	movsx  eax,al
    4428:	83 e8 01             	sub    eax,0x1
    442b:	89 45 fc             	mov    DWORD PTR [rbp-0x4],eax
    442e:	8b 45 fc             	mov    eax,DWORD PTR [rbp-0x4]
    4431:	83 c0 01             	add    eax,0x1
    4434:	48 98                	cdqe   
    4436:	48 89 c7             	mov    rdi,rax
    4439:	e8 9d fe ff ff       	call   42db <ft_strnew>
    443e:	48 89 45 e0          	mov    QWORD PTR [rbp-0x20],rax
    4442:	48 83 7d e0 00       	cmp    QWORD PTR [rbp-0x20],0x0
    4447:	75 0a                	jne    4453 <ft_itostr+0x67>
    4449:	b8 00 00 00 00       	mov    eax,0x0
    444e:	e9 88 00 00 00       	jmp    44db <ft_itostr+0xef>
    4453:	8b 45 fc             	mov    eax,DWORD PTR [rbp-0x4]
    4456:	8d 50 ff             	lea    edx,[rax-0x1]
    4459:	89 55 fc             	mov    DWORD PTR [rbp-0x4],edx
    445c:	48 63 d0             	movsxd rdx,eax
    445f:	48 8b 45 e0          	mov    rax,QWORD PTR [rbp-0x20]
    4463:	48 8d 0c 02          	lea    rcx,[rdx+rax*1]
    4467:	83 7d ec 00          	cmp    DWORD PTR [rbp-0x14],0x0
    446b:	74 1a                	je     4487 <ft_itostr+0x9b>
    446d:	8b 45 d4             	mov    eax,DWORD PTR [rbp-0x2c]
    4470:	48 63 f0             	movsxd rsi,eax
    4473:	48 8b 45 d8          	mov    rax,QWORD PTR [rbp-0x28]
    4477:	48 99                	cqo    
    4479:	48 f7 fe             	idiv   rsi
    447c:	48 89 d0             	mov    rax,rdx
    447f:	48 f7 d8             	neg    rax
    4482:	48 89 c2             	mov    rdx,rax
    4485:	eb 15                	jmp    449c <ft_itostr+0xb0>
    4487:	8b 45 d4             	mov    eax,DWORD PTR [rbp-0x2c]
    448a:	48 63 f0             	movsxd rsi,eax
    448d:	48 8b 45 d8          	mov    rax,QWORD PTR [rbp-0x28]
    4491:	48 99                	cqo    
    4493:	48 f7 fe             	idiv   rsi
    4496:	48 89 d0             	mov    rax,rdx
    4499:	48 89 c2             	mov    rdx,rax
    449c:	48 8b 45 f0          	mov    rax,QWORD PTR [rbp-0x10]
    44a0:	48 01 d0             	add    rax,rdx
    44a3:	0f b6 00             	movzx  eax,BYTE PTR [rax]
    44a6:	88 01                	mov    BYTE PTR [rcx],al
    44a8:	8b 45 d4             	mov    eax,DWORD PTR [rbp-0x2c]
    44ab:	48 63 c8             	movsxd rcx,eax
    44ae:	48 8b 45 d8          	mov    rax,QWORD PTR [rbp-0x28]
    44b2:	48 99                	cqo    
    44b4:	48 f7 f9             	idiv   rcx
    44b7:	48 89 45 d8          	mov    QWORD PTR [rbp-0x28],rax
    44bb:	48 83 7d d8 00       	cmp    QWORD PTR [rbp-0x28],0x0
    44c0:	74 08                	je     44ca <ft_itostr+0xde>
    44c2:	83 7d fc 00          	cmp    DWORD PTR [rbp-0x4],0x0
    44c6:	78 02                	js     44ca <ft_itostr+0xde>
    44c8:	eb 89                	jmp    4453 <ft_itostr+0x67>
    44ca:	83 7d ec 00          	cmp    DWORD PTR [rbp-0x14],0x0
    44ce:	74 07                	je     44d7 <ft_itostr+0xeb>
    44d0:	48 8b 45 e0          	mov    rax,QWORD PTR [rbp-0x20]
    44d4:	c6 00 2d             	mov    BYTE PTR [rax],0x2d
    44d7:	48 8b 45 e0          	mov    rax,QWORD PTR [rbp-0x20]
    44db:	c9                   	leave  
    44dc:	c3                   	ret    

00000000000044dd <ft_strjoinfree>:
    44dd:	55                   	push   rbp
    44de:	48 89 e5             	mov    rbp,rsp
    44e1:	53                   	push   rbx
    44e2:	48 83 ec 28          	sub    rsp,0x28
    44e6:	48 89 7d d8          	mov    QWORD PTR [rbp-0x28],rdi
    44ea:	48 89 75 d0          	mov    QWORD PTR [rbp-0x30],rsi
    44ee:	48 8b 45 d8          	mov    rax,QWORD PTR [rbp-0x28]
    44f2:	48 85 c0             	test   rax,rax
    44f5:	74 07                	je     44fe <ft_strjoinfree+0x21>
    44f7:	48 83 7d d0 00       	cmp    QWORD PTR [rbp-0x30],0x0
    44fc:	75 07                	jne    4505 <ft_strjoinfree+0x28>
    44fe:	b8 00 00 00 00       	mov    eax,0x0
    4503:	eb 6e                	jmp    4573 <ft_strjoinfree+0x96>
    4505:	48 8b 45 d8          	mov    rax,QWORD PTR [rbp-0x28]
    4509:	48 89 c7             	mov    rdi,rax
    450c:	e8 78 fa ff ff       	call   3f89 <ft_strlen>
    4511:	48 89 c3             	mov    rbx,rax
    4514:	48 8b 45 d0          	mov    rax,QWORD PTR [rbp-0x30]
    4518:	48 89 c7             	mov    rdi,rax
    451b:	e8 69 fa ff ff       	call   3f89 <ft_strlen>
    4520:	48 01 d8             	add    rax,rbx
    4523:	48 89 c7             	mov    rdi,rax
    4526:	e8 b0 fd ff ff       	call   42db <ft_strnew>
    452b:	48 89 45 e8          	mov    QWORD PTR [rbp-0x18],rax
    452f:	48 83 7d e8 00       	cmp    QWORD PTR [rbp-0x18],0x0
    4534:	75 07                	jne    453d <ft_strjoinfree+0x60>
    4536:	b8 00 00 00 00       	mov    eax,0x0
    453b:	eb 36                	jmp    4573 <ft_strjoinfree+0x96>
    453d:	48 8b 55 d8          	mov    rdx,QWORD PTR [rbp-0x28]
    4541:	48 8b 45 e8          	mov    rax,QWORD PTR [rbp-0x18]
    4545:	48 89 d6             	mov    rsi,rdx
    4548:	48 89 c7             	mov    rdi,rax
    454b:	e8 8b fb ff ff       	call   40db <ft_strcpy>
    4550:	48 8d 45 d8          	lea    rax,[rbp-0x28]
    4554:	48 89 c7             	mov    rdi,rax
    4557:	e8 a5 04 00 00       	call   4a01 <ft_strdel>
    455c:	48 8b 55 d0          	mov    rdx,QWORD PTR [rbp-0x30]
    4560:	48 8b 45 e8          	mov    rax,QWORD PTR [rbp-0x18]
    4564:	48 89 d6             	mov    rsi,rdx
    4567:	48 89 c7             	mov    rdi,rax
    456a:	e8 a5 fb ff ff       	call   4114 <ft_strcat>
    456f:	48 8b 45 e8          	mov    rax,QWORD PTR [rbp-0x18]
    4573:	48 83 c4 28          	add    rsp,0x28
    4577:	5b                   	pop    rbx
    4578:	5d                   	pop    rbp
    4579:	c3                   	ret    

000000000000457a <ft_strupr>:
    457a:	55                   	push   rbp
    457b:	48 89 e5             	mov    rbp,rsp
    457e:	48 83 ec 20          	sub    rsp,0x20
    4582:	48 89 7d e8          	mov    QWORD PTR [rbp-0x18],rdi
    4586:	48 8b 45 e8          	mov    rax,QWORD PTR [rbp-0x18]
    458a:	48 89 45 f8          	mov    QWORD PTR [rbp-0x8],rax
    458e:	eb 1e                	jmp    45ae <ft_strupr+0x34>
    4590:	48 8b 45 e8          	mov    rax,QWORD PTR [rbp-0x18]
    4594:	0f b6 00             	movzx  eax,BYTE PTR [rax]
    4597:	0f be c0             	movsx  eax,al
    459a:	89 c7                	mov    edi,eax
    459c:	e8 0a 04 00 00       	call   49ab <ft_toupper>
    45a1:	89 c2                	mov    edx,eax
    45a3:	48 8b 45 e8          	mov    rax,QWORD PTR [rbp-0x18]
    45a7:	88 10                	mov    BYTE PTR [rax],dl
    45a9:	48 83 45 e8 01       	add    QWORD PTR [rbp-0x18],0x1
    45ae:	48 8b 45 e8          	mov    rax,QWORD PTR [rbp-0x18]
    45b2:	0f b6 00             	movzx  eax,BYTE PTR [rax]
    45b5:	84 c0                	test   al,al
    45b7:	75 d7                	jne    4590 <ft_strupr+0x16>
    45b9:	48 8b 45 f8          	mov    rax,QWORD PTR [rbp-0x8]
    45bd:	c9                   	leave  
    45be:	c3                   	ret    

00000000000045bf <ft_strisndigit>:
    45bf:	55                   	push   rbp
    45c0:	48 89 e5             	mov    rbp,rsp
    45c3:	48 83 ec 10          	sub    rsp,0x10
    45c7:	48 89 7d f8          	mov    QWORD PTR [rbp-0x8],rdi
    45cb:	48 89 75 f0          	mov    QWORD PTR [rbp-0x10],rsi
    45cf:	48 83 6d f8 01       	sub    QWORD PTR [rbp-0x8],0x1
    45d4:	eb 1c                	jmp    45f2 <ft_strisndigit+0x33>
    45d6:	48 8b 45 f8          	mov    rax,QWORD PTR [rbp-0x8]
    45da:	0f b6 00             	movzx  eax,BYTE PTR [rax]
    45dd:	0f be c0             	movsx  eax,al
    45e0:	89 c7                	mov    edi,eax
    45e2:	e8 b4 fb ff ff       	call   419b <ft_isdigit>
    45e7:	85 c0                	test   eax,eax
    45e9:	75 07                	jne    45f2 <ft_strisndigit+0x33>
    45eb:	b8 00 00 00 00       	mov    eax,0x0
    45f0:	eb 26                	jmp    4618 <ft_strisndigit+0x59>
    45f2:	48 83 45 f8 01       	add    QWORD PTR [rbp-0x8],0x1
    45f7:	48 8b 45 f8          	mov    rax,QWORD PTR [rbp-0x8]
    45fb:	0f b6 00             	movzx  eax,BYTE PTR [rax]
    45fe:	84 c0                	test   al,al
    4600:	74 11                	je     4613 <ft_strisndigit+0x54>
    4602:	48 8b 45 f0          	mov    rax,QWORD PTR [rbp-0x10]
    4606:	48 8d 50 ff          	lea    rdx,[rax-0x1]
    460a:	48 89 55 f0          	mov    QWORD PTR [rbp-0x10],rdx
    460e:	48 85 c0             	test   rax,rax
    4611:	75 c3                	jne    45d6 <ft_strisndigit+0x17>
    4613:	b8 01 00 00 00       	mov    eax,0x1
    4618:	c9                   	leave  
    4619:	c3                   	ret    

000000000000461a <ft_pow>:
    461a:	55                   	push   rbp
    461b:	48 89 e5             	mov    rbp,rsp
    461e:	53                   	push   rbx
    461f:	48 83 ec 18          	sub    rsp,0x18
    4623:	48 89 7d e8          	mov    QWORD PTR [rbp-0x18],rdi
    4627:	48 89 75 e0          	mov    QWORD PTR [rbp-0x20],rsi
    462b:	48 83 7d e0 00       	cmp    QWORD PTR [rbp-0x20],0x0
    4630:	75 0a                	jne    463c <ft_pow+0x22>
    4632:	b8 01 00 00 00       	mov    eax,0x1
    4637:	e9 85 00 00 00       	jmp    46c1 <ft_pow+0xa7>
    463c:	48 8b 45 e0          	mov    rax,QWORD PTR [rbp-0x20]
    4640:	83 e0 01             	and    eax,0x1
    4643:	48 85 c0             	test   rax,rax
    4646:	75 3b                	jne    4683 <ft_pow+0x69>
    4648:	48 8b 45 e0          	mov    rax,QWORD PTR [rbp-0x20]
    464c:	48 d1 e8             	shr    rax,1
    464f:	48 89 c2             	mov    rdx,rax
    4652:	48 8b 45 e8          	mov    rax,QWORD PTR [rbp-0x18]
    4656:	48 89 d6             	mov    rsi,rdx
    4659:	48 89 c7             	mov    rdi,rax
    465c:	e8 b9 ff ff ff       	call   461a <ft_pow>
    4661:	48 89 c3             	mov    rbx,rax
    4664:	48 8b 45 e0          	mov    rax,QWORD PTR [rbp-0x20]
    4668:	48 d1 e8             	shr    rax,1
    466b:	48 89 c2             	mov    rdx,rax
    466e:	48 8b 45 e8          	mov    rax,QWORD PTR [rbp-0x18]
    4672:	48 89 d6             	mov    rsi,rdx
    4675:	48 89 c7             	mov    rdi,rax
    4678:	e8 9d ff ff ff       	call   461a <ft_pow>
    467d:	48 0f af c3          	imul   rax,rbx
    4681:	eb 3e                	jmp    46c1 <ft_pow+0xa7>
    4683:	48 8b 45 e0          	mov    rax,QWORD PTR [rbp-0x20]
    4687:	48 d1 e8             	shr    rax,1
    468a:	48 89 c2             	mov    rdx,rax
    468d:	48 8b 45 e8          	mov    rax,QWORD PTR [rbp-0x18]
    4691:	48 89 d6             	mov    rsi,rdx
    4694:	48 89 c7             	mov    rdi,rax
    4697:	e8 7e ff ff ff       	call   461a <ft_pow>
    469c:	48 0f af 45 e8       	imul   rax,QWORD PTR [rbp-0x18]
    46a1:	48 89 c3             	mov    rbx,rax
    46a4:	48 8b 45 e0          	mov    rax,QWORD PTR [rbp-0x20]
    46a8:	48 d1 e8             	shr    rax,1
    46ab:	48 89 c2             	mov    rdx,rax
    46ae:	48 8b 45 e8          	mov    rax,QWORD PTR [rbp-0x18]
    46b2:	48 89 d6             	mov    rsi,rdx
    46b5:	48 89 c7             	mov    rdi,rax
    46b8:	e8 5d ff ff ff       	call   461a <ft_pow>
    46bd:	48 0f af c3          	imul   rax,rbx
    46c1:	48 83 c4 18          	add    rsp,0x18
    46c5:	5b                   	pop    rbx
    46c6:	5d                   	pop    rbp
    46c7:	c3                   	ret    

00000000000046c8 <ft_intlen>:
    46c8:	55                   	push   rbp
    46c9:	48 89 e5             	mov    rbp,rsp
    46cc:	48 89 7d e8          	mov    QWORD PTR [rbp-0x18],rdi
    46d0:	89 75 e4             	mov    DWORD PTR [rbp-0x1c],esi
    46d3:	48 c7 45 f8 00 00 00 	mov    QWORD PTR [rbp-0x8],0x0
    46da:	00 
    46db:	48 83 7d e8 00       	cmp    QWORD PTR [rbp-0x18],0x0
    46e0:	79 05                	jns    46e7 <ft_intlen+0x1f>
    46e2:	48 83 45 f8 01       	add    QWORD PTR [rbp-0x8],0x1
    46e7:	48 83 7d f8 00       	cmp    QWORD PTR [rbp-0x8],0x0
    46ec:	74 0b                	je     46f9 <ft_intlen+0x31>
    46ee:	48 f7 5d e8          	neg    QWORD PTR [rbp-0x18]
    46f2:	eb 05                	jmp    46f9 <ft_intlen+0x31>
    46f4:	48 83 45 f8 01       	add    QWORD PTR [rbp-0x8],0x1
    46f9:	8b 45 e4             	mov    eax,DWORD PTR [rbp-0x1c]
    46fc:	48 63 c8             	movsxd rcx,eax
    46ff:	48 8b 45 e8          	mov    rax,QWORD PTR [rbp-0x18]
    4703:	48 99                	cqo    
    4705:	48 f7 f9             	idiv   rcx
    4708:	48 89 45 e8          	mov    QWORD PTR [rbp-0x18],rax
    470c:	48 83 7d e8 00       	cmp    QWORD PTR [rbp-0x18],0x0
    4711:	75 e1                	jne    46f4 <ft_intlen+0x2c>
    4713:	48 8b 45 f8          	mov    rax,QWORD PTR [rbp-0x8]
    4717:	83 c0 01             	add    eax,0x1
    471a:	5d                   	pop    rbp
    471b:	c3                   	ret    

000000000000471c <ft_uintlen>:
    471c:	55                   	push   rbp
    471d:	48 89 e5             	mov    rbp,rsp
    4720:	48 89 7d e8          	mov    QWORD PTR [rbp-0x18],rdi
    4724:	89 75 e4             	mov    DWORD PTR [rbp-0x1c],esi
    4727:	48 c7 45 f8 00 00 00 	mov    QWORD PTR [rbp-0x8],0x0
    472e:	00 
    472f:	eb 05                	jmp    4736 <ft_uintlen+0x1a>
    4731:	48 83 45 f8 01       	add    QWORD PTR [rbp-0x8],0x1
    4736:	8b 45 e4             	mov    eax,DWORD PTR [rbp-0x1c]
    4739:	48 63 c8             	movsxd rcx,eax
    473c:	48 8b 45 e8          	mov    rax,QWORD PTR [rbp-0x18]
    4740:	ba 00 00 00 00       	mov    edx,0x0
    4745:	48 f7 f1             	div    rcx
    4748:	48 89 45 e8          	mov    QWORD PTR [rbp-0x18],rax
    474c:	48 83 7d e8 00       	cmp    QWORD PTR [rbp-0x18],0x0
    4751:	75 de                	jne    4731 <ft_uintlen+0x15>
    4753:	48 8b 45 f8          	mov    rax,QWORD PTR [rbp-0x8]
    4757:	83 c0 01             	add    eax,0x1
    475a:	5d                   	pop    rbp
    475b:	c3                   	ret    

000000000000475c <ft_strebrk>:
    475c:	55                   	push   rbp
    475d:	48 89 e5             	mov    rbp,rsp
    4760:	48 89 7d e8          	mov    QWORD PTR [rbp-0x18],rdi
    4764:	48 89 75 e0          	mov    QWORD PTR [rbp-0x20],rsi
    4768:	48 8b 45 e0          	mov    rax,QWORD PTR [rbp-0x20]
    476c:	48 89 45 f8          	mov    QWORD PTR [rbp-0x8],rax
    4770:	eb 35                	jmp    47a7 <ft_strebrk+0x4b>
    4772:	48 8b 45 e0          	mov    rax,QWORD PTR [rbp-0x20]
    4776:	0f b6 10             	movzx  edx,BYTE PTR [rax]
    4779:	48 8b 45 e8          	mov    rax,QWORD PTR [rbp-0x18]
    477d:	0f b6 00             	movzx  eax,BYTE PTR [rax]
    4780:	38 c2                	cmp    dl,al
    4782:	75 06                	jne    478a <ft_strebrk+0x2e>
    4784:	48 8b 45 e8          	mov    rax,QWORD PTR [rbp-0x18]
    4788:	eb 2c                	jmp    47b6 <ft_strebrk+0x5a>
    478a:	48 83 45 e0 01       	add    QWORD PTR [rbp-0x20],0x1
    478f:	48 8b 45 e0          	mov    rax,QWORD PTR [rbp-0x20]
    4793:	0f b6 00             	movzx  eax,BYTE PTR [rax]
    4796:	84 c0                	test   al,al
    4798:	75 d8                	jne    4772 <ft_strebrk+0x16>
    479a:	48 8b 45 f8          	mov    rax,QWORD PTR [rbp-0x8]
    479e:	48 89 45 e0          	mov    QWORD PTR [rbp-0x20],rax
    47a2:	48 83 45 e8 01       	add    QWORD PTR [rbp-0x18],0x1
    47a7:	48 8b 45 e8          	mov    rax,QWORD PTR [rbp-0x18]
    47ab:	0f b6 00             	movzx  eax,BYTE PTR [rax]
    47ae:	84 c0                	test   al,al
    47b0:	75 dd                	jne    478f <ft_strebrk+0x33>
    47b2:	48 8b 45 e8          	mov    rax,QWORD PTR [rbp-0x18]
    47b6:	5d                   	pop    rbp
    47b7:	c3                   	ret    

00000000000047b8 <bzero1b>:
    47b8:	55                   	push   rbp
    47b9:	48 89 e5             	mov    rbp,rsp
    47bc:	48 89 7d f8          	mov    QWORD PTR [rbp-0x8],rdi
    47c0:	48 8b 45 f8          	mov    rax,QWORD PTR [rbp-0x8]
    47c4:	48 8b 00             	mov    rax,QWORD PTR [rax]
    47c7:	c6 00 00             	mov    BYTE PTR [rax],0x0
    47ca:	48 8b 45 f8          	mov    rax,QWORD PTR [rbp-0x8]
